ccopy_reg
_reconstructor
p0
(csklearn.preprocessing.label
LabelEncoder
p1
c__builtin__
object
p2
Ntp3
Rp4
(dp5
S'classes_'
p6
cnumpy.core.multiarray
_reconstruct
p7
(cnumpy
ndarray
p8
(I0
tp9
S'b'
p10
tp11
Rp12
(I1
(I8
tp13
cnumpy
dtype
p14
(S'O8'
p15
I0
I1
tp16
Rp17
(I3
S'|'
p18
NNNI-1
I-1
I63
tp19
bI00
(lp20
S'Account Proof'
p21
aS'Account intent'
p22
aS'Authorize stop'
p23
aS'Book hotel'
p24
aS'Start video'
p25
aS'Track payment'
p26
aS'Transaction intent'
p27
aS'Transfer intent'
p28
atp29
bsb.