ccopy_reg
_reconstructor
p0
(ctextblob.classifiers
NaiveBayesClassifier
p1
c__builtin__
object
p2
Ntp3
Rp4
(dp5
S'format_kwargs'
p6
(dp7
sS'train_features'
p8
(lp9
((dp10
Vcontains(corporate)
p11
I00
sVcontains(confirmation)
p12
I00
sVcontains(of)
p13
I00
sVcontains(current)
p14
I00
sVcontains(start)
p15
I00
sVcontains(proof)
p16
I00
sVcontains(card)
p17
I00
sVcontains(me)
p18
I00
sVcontains(certificate)
p19
I00
sVcontains(using)
p20
I00
sVcontains(have)
p21
I01
sVcontains(how)
p22
I01
sVcontains(in)
p23
I01
sVcontains(pay)
p24
I00
sVcontains(ask)
p25
I01
sVcontains(a)
p26
I00
sVcontains(on)
p27
I00
sVcontains(account)
p28
I00
sVcontains(payment)
p29
I00
sVcontains(the)
p30
I00
sVcontains(use)
p31
I00
sVcontains(Alexa)
p32
I01
sVcontains(do)
p33
I00
sVcontains(my)
p34
I01
sVcontains(checking)
p35
I00
sVcontains(for)
p36
I00
sVcontains(transfer)
p37
I00
sVcontains(starting)
p38
I00
sVcontains(hotel)
p39
I00
sVcontains(head)
p40
I00
sVcontains(tell)
p41
I00
sVcontains(city)
p42
I01
sVcontains(I)
p43
I01
sVcontains(an)
p44
I00
sVcontains(is)
p45
I00
sVcontains(doing)
p46
I00
sVcontains(money)
p47
I01
sVcontains(alexa)
p48
I00
sVcontains(citi)
p49
I00
sVcontains(online)
p50
I00
sVcontains(give)
p51
I00
sVcontains(detais)
p52
I00
sVcontains(credit)
p53
I00
sVcontains(bank)
p54
I01
sVcontains(book)
p55
I00
sVcontains(balance)
p56
I00
sVcontains(want)
p57
I00
sVcontains(accomodation)
p58
I00
sVcontains(i)
p59
I00
sVcontains(confirm)
p60
I00
sVcontains(letter)
p61
I00
sVcontains(initiate)
p62
I00
sVcontains(need)
p63
I00
sVcontains(to)
p64
I00
sVcontains(savings)
p65
I01
sVcontains(get)
p66
I00
sVcontains(booking)
p67
I00
sVcontains(statement)
p68
I00
sVcontains(what)
p69
I00
sVcontains(document)
p70
I00
sVcontains(much)
p71
I01
sVcontains(make)
p72
I00
sVcontains(help)
p73
I00
sVcontains('s)
p74
I00
sVcontains(transaction)
p75
I00
sVcontains(details)
p76
I00
sVcontains(nice)
p77
I00
sVcontains(amount)
p78
I00
sVcontains(can)
p79
I00
sS'Account intent'
p80
tp81
a((dp82
Vcontains(corporate)
p83
I00
sVcontains(confirmation)
p84
I00
sVcontains(of)
p85
I00
sVcontains(current)
p86
I00
sVcontains(start)
p87
I00
sVcontains(proof)
p88
I00
sVcontains(card)
p89
I00
sVcontains(me)
p90
I00
sVcontains(certificate)
p91
I00
sVcontains(using)
p92
I00
sVcontains(have)
p93
I00
sVcontains(how)
p94
I00
sVcontains(in)
p95
I00
sVcontains(pay)
p96
I00
sVcontains(ask)
p97
I01
sVcontains(a)
p98
I00
sVcontains(on)
p99
I00
sVcontains(account)
p100
I01
sVcontains(payment)
p101
I00
sVcontains(the)
p102
I00
sVcontains(use)
p103
I00
sVcontains(Alexa)
p104
I01
sVcontains(do)
p105
I00
sVcontains(my)
p106
I01
sVcontains(checking)
p107
I01
sVcontains(for)
p108
I00
sVcontains(transfer)
p109
I00
sVcontains(starting)
p110
I00
sVcontains(hotel)
p111
I00
sVcontains(head)
p112
I00
sVcontains(tell)
p113
I00
sVcontains(city)
p114
I01
sVcontains(I)
p115
I00
sVcontains(an)
p116
I00
sVcontains(is)
p117
I00
sVcontains(doing)
p118
I00
sVcontains(money)
p119
I00
sVcontains(alexa)
p120
I00
sVcontains(citi)
p121
I00
sVcontains(online)
p122
I00
sVcontains(give)
p123
I00
sVcontains(detais)
p124
I00
sVcontains(credit)
p125
I00
sVcontains(bank)
p126
I01
sVcontains(book)
p127
I00
sVcontains(balance)
p128
I01
sVcontains(want)
p129
I00
sVcontains(accomodation)
p130
I00
sVcontains(i)
p131
I00
sVcontains(confirm)
p132
I00
sVcontains(letter)
p133
I00
sVcontains(initiate)
p134
I00
sVcontains(need)
p135
I00
sVcontains(to)
p136
I00
sVcontains(savings)
p137
I00
sVcontains(get)
p138
I00
sVcontains(booking)
p139
I00
sVcontains(statement)
p140
I00
sVcontains(what)
p141
I01
sVcontains(document)
p142
I00
sVcontains(much)
p143
I00
sVcontains(make)
p144
I00
sVcontains(help)
p145
I00
sVcontains('s)
p146
I00
sVcontains(transaction)
p147
I00
sVcontains(details)
p148
I00
sVcontains(nice)
p149
I00
sVcontains(amount)
p150
I00
sVcontains(can)
p151
I00
sS'Account intent'
p152
tp153
a((dp154
Vcontains(corporate)
p155
I00
sVcontains(confirmation)
p156
I00
sVcontains(of)
p157
I00
sVcontains(current)
p158
I00
sVcontains(start)
p159
I00
sVcontains(proof)
p160
I00
sVcontains(card)
p161
I00
sVcontains(me)
p162
I00
sVcontains(certificate)
p163
I00
sVcontains(using)
p164
I00
sVcontains(have)
p165
I00
sVcontains(how)
p166
I00
sVcontains(in)
p167
I00
sVcontains(pay)
p168
I00
sVcontains(ask)
p169
I00
sVcontains(a)
p170
I00
sVcontains(on)
p171
I00
sVcontains(account)
p172
I01
sVcontains(payment)
p173
I00
sVcontains(the)
p174
I00
sVcontains(use)
p175
I00
sVcontains(Alexa)
p176
I00
sVcontains(do)
p177
I00
sVcontains(my)
p178
I01
sVcontains(checking)
p179
I00
sVcontains(for)
p180
I00
sVcontains(transfer)
p181
I00
sVcontains(starting)
p182
I00
sVcontains(hotel)
p183
I00
sVcontains(head)
p184
I00
sVcontains(tell)
p185
I00
sVcontains(city)
p186
I00
sVcontains(I)
p187
I00
sVcontains(an)
p188
I00
sVcontains(is)
p189
I00
sVcontains(doing)
p190
I00
sVcontains(money)
p191
I00
sVcontains(alexa)
p192
I00
sVcontains(citi)
p193
I00
sVcontains(online)
p194
I00
sVcontains(give)
p195
I00
sVcontains(detais)
p196
I00
sVcontains(credit)
p197
I00
sVcontains(bank)
p198
I00
sVcontains(book)
p199
I00
sVcontains(balance)
p200
I01
sVcontains(want)
p201
I00
sVcontains(accomodation)
p202
I00
sVcontains(i)
p203
I00
sVcontains(confirm)
p204
I00
sVcontains(letter)
p205
I00
sVcontains(initiate)
p206
I00
sVcontains(need)
p207
I00
sVcontains(to)
p208
I00
sVcontains(savings)
p209
I01
sVcontains(get)
p210
I00
sVcontains(booking)
p211
I00
sVcontains(statement)
p212
I00
sVcontains(what)
p213
I00
sVcontains(document)
p214
I00
sVcontains(much)
p215
I00
sVcontains(make)
p216
I00
sVcontains(help)
p217
I00
sVcontains('s)
p218
I00
sVcontains(transaction)
p219
I00
sVcontains(details)
p220
I00
sVcontains(nice)
p221
I00
sVcontains(amount)
p222
I00
sVcontains(can)
p223
I00
sS'Account intent'
p224
tp225
a((dp226
Vcontains(corporate)
p227
I00
sVcontains(confirmation)
p228
I00
sVcontains(of)
p229
I00
sVcontains(current)
p230
I00
sVcontains(start)
p231
I00
sVcontains(proof)
p232
I00
sVcontains(card)
p233
I00
sVcontains(me)
p234
I01
sVcontains(certificate)
p235
I00
sVcontains(using)
p236
I00
sVcontains(have)
p237
I00
sVcontains(how)
p238
I00
sVcontains(in)
p239
I00
sVcontains(pay)
p240
I00
sVcontains(ask)
p241
I00
sVcontains(a)
p242
I00
sVcontains(on)
p243
I00
sVcontains(account)
p244
I01
sVcontains(payment)
p245
I00
sVcontains(the)
p246
I00
sVcontains(use)
p247
I00
sVcontains(Alexa)
p248
I00
sVcontains(do)
p249
I00
sVcontains(my)
p250
I01
sVcontains(checking)
p251
I00
sVcontains(for)
p252
I00
sVcontains(transfer)
p253
I00
sVcontains(starting)
p254
I00
sVcontains(hotel)
p255
I00
sVcontains(head)
p256
I00
sVcontains(tell)
p257
I01
sVcontains(city)
p258
I00
sVcontains(I)
p259
I00
sVcontains(an)
p260
I00
sVcontains(is)
p261
I00
sVcontains(doing)
p262
I00
sVcontains(money)
p263
I00
sVcontains(alexa)
p264
I00
sVcontains(citi)
p265
I00
sVcontains(online)
p266
I00
sVcontains(give)
p267
I00
sVcontains(detais)
p268
I00
sVcontains(credit)
p269
I00
sVcontains(bank)
p270
I00
sVcontains(book)
p271
I00
sVcontains(balance)
p272
I01
sVcontains(want)
p273
I00
sVcontains(accomodation)
p274
I00
sVcontains(i)
p275
I00
sVcontains(confirm)
p276
I00
sVcontains(letter)
p277
I00
sVcontains(initiate)
p278
I00
sVcontains(need)
p279
I00
sVcontains(to)
p280
I00
sVcontains(savings)
p281
I01
sVcontains(get)
p282
I00
sVcontains(booking)
p283
I00
sVcontains(statement)
p284
I00
sVcontains(what)
p285
I00
sVcontains(document)
p286
I00
sVcontains(much)
p287
I00
sVcontains(make)
p288
I00
sVcontains(help)
p289
I00
sVcontains('s)
p290
I00
sVcontains(transaction)
p291
I00
sVcontains(details)
p292
I00
sVcontains(nice)
p293
I00
sVcontains(amount)
p294
I00
sVcontains(can)
p295
I00
sS'Account intent'
p296
tp297
a((dp298
Vcontains(corporate)
p299
I00
sVcontains(confirmation)
p300
I00
sVcontains(of)
p301
I00
sVcontains(current)
p302
I00
sVcontains(start)
p303
I00
sVcontains(proof)
p304
I00
sVcontains(card)
p305
I00
sVcontains(me)
p306
I01
sVcontains(certificate)
p307
I00
sVcontains(using)
p308
I00
sVcontains(have)
p309
I00
sVcontains(how)
p310
I00
sVcontains(in)
p311
I00
sVcontains(pay)
p312
I00
sVcontains(ask)
p313
I00
sVcontains(a)
p314
I00
sVcontains(on)
p315
I00
sVcontains(account)
p316
I00
sVcontains(payment)
p317
I00
sVcontains(the)
p318
I00
sVcontains(use)
p319
I00
sVcontains(Alexa)
p320
I00
sVcontains(do)
p321
I00
sVcontains(my)
p322
I01
sVcontains(checking)
p323
I00
sVcontains(for)
p324
I00
sVcontains(transfer)
p325
I00
sVcontains(starting)
p326
I00
sVcontains(hotel)
p327
I00
sVcontains(head)
p328
I00
sVcontains(tell)
p329
I01
sVcontains(city)
p330
I00
sVcontains(I)
p331
I00
sVcontains(an)
p332
I00
sVcontains(is)
p333
I00
sVcontains(doing)
p334
I00
sVcontains(money)
p335
I00
sVcontains(alexa)
p336
I00
sVcontains(citi)
p337
I00
sVcontains(online)
p338
I00
sVcontains(give)
p339
I00
sVcontains(detais)
p340
I00
sVcontains(credit)
p341
I00
sVcontains(bank)
p342
I00
sVcontains(book)
p343
I00
sVcontains(balance)
p344
I01
sVcontains(want)
p345
I00
sVcontains(accomodation)
p346
I00
sVcontains(i)
p347
I00
sVcontains(confirm)
p348
I00
sVcontains(letter)
p349
I00
sVcontains(initiate)
p350
I00
sVcontains(need)
p351
I00
sVcontains(to)
p352
I00
sVcontains(savings)
p353
I01
sVcontains(get)
p354
I00
sVcontains(booking)
p355
I00
sVcontains(statement)
p356
I00
sVcontains(what)
p357
I00
sVcontains(document)
p358
I00
sVcontains(much)
p359
I00
sVcontains(make)
p360
I00
sVcontains(help)
p361
I00
sVcontains('s)
p362
I00
sVcontains(transaction)
p363
I00
sVcontains(details)
p364
I00
sVcontains(nice)
p365
I00
sVcontains(amount)
p366
I00
sVcontains(can)
p367
I00
sS'Account intent'
p368
tp369
a((dp370
Vcontains(corporate)
p371
I00
sVcontains(confirmation)
p372
I00
sVcontains(of)
p373
I00
sVcontains(current)
p374
I01
sVcontains(start)
p375
I00
sVcontains(proof)
p376
I00
sVcontains(card)
p377
I00
sVcontains(me)
p378
I00
sVcontains(certificate)
p379
I00
sVcontains(using)
p380
I00
sVcontains(have)
p381
I00
sVcontains(how)
p382
I00
sVcontains(in)
p383
I00
sVcontains(pay)
p384
I00
sVcontains(ask)
p385
I00
sVcontains(a)
p386
I00
sVcontains(on)
p387
I00
sVcontains(account)
p388
I01
sVcontains(payment)
p389
I00
sVcontains(the)
p390
I00
sVcontains(use)
p391
I00
sVcontains(Alexa)
p392
I00
sVcontains(do)
p393
I00
sVcontains(my)
p394
I01
sVcontains(checking)
p395
I00
sVcontains(for)
p396
I00
sVcontains(transfer)
p397
I00
sVcontains(starting)
p398
I00
sVcontains(hotel)
p399
I00
sVcontains(head)
p400
I00
sVcontains(tell)
p401
I00
sVcontains(city)
p402
I00
sVcontains(I)
p403
I00
sVcontains(an)
p404
I00
sVcontains(is)
p405
I00
sVcontains(doing)
p406
I00
sVcontains(money)
p407
I00
sVcontains(alexa)
p408
I00
sVcontains(citi)
p409
I00
sVcontains(online)
p410
I00
sVcontains(give)
p411
I00
sVcontains(detais)
p412
I00
sVcontains(credit)
p413
I00
sVcontains(bank)
p414
I00
sVcontains(book)
p415
I00
sVcontains(balance)
p416
I01
sVcontains(want)
p417
I00
sVcontains(accomodation)
p418
I00
sVcontains(i)
p419
I00
sVcontains(confirm)
p420
I00
sVcontains(letter)
p421
I00
sVcontains(initiate)
p422
I00
sVcontains(need)
p423
I00
sVcontains(to)
p424
I00
sVcontains(savings)
p425
I00
sVcontains(get)
p426
I00
sVcontains(booking)
p427
I00
sVcontains(statement)
p428
I00
sVcontains(what)
p429
I00
sVcontains(document)
p430
I00
sVcontains(much)
p431
I00
sVcontains(make)
p432
I00
sVcontains(help)
p433
I00
sVcontains('s)
p434
I00
sVcontains(transaction)
p435
I00
sVcontains(details)
p436
I00
sVcontains(nice)
p437
I00
sVcontains(amount)
p438
I00
sVcontains(can)
p439
I00
sS'Account intent'
p440
tp441
a((dp442
Vcontains(corporate)
p443
I00
sVcontains(confirmation)
p444
I00
sVcontains(of)
p445
I00
sVcontains(current)
p446
I01
sVcontains(start)
p447
I00
sVcontains(proof)
p448
I00
sVcontains(card)
p449
I00
sVcontains(me)
p450
I01
sVcontains(certificate)
p451
I00
sVcontains(using)
p452
I00
sVcontains(have)
p453
I00
sVcontains(how)
p454
I00
sVcontains(in)
p455
I00
sVcontains(pay)
p456
I00
sVcontains(ask)
p457
I00
sVcontains(a)
p458
I00
sVcontains(on)
p459
I00
sVcontains(account)
p460
I01
sVcontains(payment)
p461
I00
sVcontains(the)
p462
I00
sVcontains(use)
p463
I00
sVcontains(Alexa)
p464
I00
sVcontains(do)
p465
I00
sVcontains(my)
p466
I01
sVcontains(checking)
p467
I00
sVcontains(for)
p468
I00
sVcontains(transfer)
p469
I00
sVcontains(starting)
p470
I00
sVcontains(hotel)
p471
I00
sVcontains(head)
p472
I00
sVcontains(tell)
p473
I01
sVcontains(city)
p474
I00
sVcontains(I)
p475
I00
sVcontains(an)
p476
I00
sVcontains(is)
p477
I00
sVcontains(doing)
p478
I00
sVcontains(money)
p479
I00
sVcontains(alexa)
p480
I00
sVcontains(citi)
p481
I00
sVcontains(online)
p482
I00
sVcontains(give)
p483
I00
sVcontains(detais)
p484
I00
sVcontains(credit)
p485
I00
sVcontains(bank)
p486
I00
sVcontains(book)
p487
I00
sVcontains(balance)
p488
I01
sVcontains(want)
p489
I00
sVcontains(accomodation)
p490
I00
sVcontains(i)
p491
I00
sVcontains(confirm)
p492
I00
sVcontains(letter)
p493
I00
sVcontains(initiate)
p494
I00
sVcontains(need)
p495
I00
sVcontains(to)
p496
I00
sVcontains(savings)
p497
I00
sVcontains(get)
p498
I00
sVcontains(booking)
p499
I00
sVcontains(statement)
p500
I00
sVcontains(what)
p501
I00
sVcontains(document)
p502
I00
sVcontains(much)
p503
I00
sVcontains(make)
p504
I00
sVcontains(help)
p505
I00
sVcontains('s)
p506
I00
sVcontains(transaction)
p507
I00
sVcontains(details)
p508
I00
sVcontains(nice)
p509
I00
sVcontains(amount)
p510
I00
sVcontains(can)
p511
I00
sS'Account intent'
p512
tp513
a((dp514
Vcontains(corporate)
p515
I00
sVcontains(confirmation)
p516
I00
sVcontains(of)
p517
I00
sVcontains(current)
p518
I01
sVcontains(start)
p519
I00
sVcontains(proof)
p520
I00
sVcontains(card)
p521
I00
sVcontains(me)
p522
I01
sVcontains(certificate)
p523
I00
sVcontains(using)
p524
I00
sVcontains(have)
p525
I00
sVcontains(how)
p526
I00
sVcontains(in)
p527
I00
sVcontains(pay)
p528
I00
sVcontains(ask)
p529
I00
sVcontains(a)
p530
I00
sVcontains(on)
p531
I00
sVcontains(account)
p532
I00
sVcontains(payment)
p533
I00
sVcontains(the)
p534
I00
sVcontains(use)
p535
I00
sVcontains(Alexa)
p536
I00
sVcontains(do)
p537
I00
sVcontains(my)
p538
I01
sVcontains(checking)
p539
I00
sVcontains(for)
p540
I00
sVcontains(transfer)
p541
I00
sVcontains(starting)
p542
I00
sVcontains(hotel)
p543
I00
sVcontains(head)
p544
I00
sVcontains(tell)
p545
I01
sVcontains(city)
p546
I00
sVcontains(I)
p547
I00
sVcontains(an)
p548
I00
sVcontains(is)
p549
I00
sVcontains(doing)
p550
I00
sVcontains(money)
p551
I00
sVcontains(alexa)
p552
I00
sVcontains(citi)
p553
I00
sVcontains(online)
p554
I00
sVcontains(give)
p555
I00
sVcontains(detais)
p556
I00
sVcontains(credit)
p557
I00
sVcontains(bank)
p558
I00
sVcontains(book)
p559
I00
sVcontains(balance)
p560
I01
sVcontains(want)
p561
I00
sVcontains(accomodation)
p562
I00
sVcontains(i)
p563
I00
sVcontains(confirm)
p564
I00
sVcontains(letter)
p565
I00
sVcontains(initiate)
p566
I00
sVcontains(need)
p567
I00
sVcontains(to)
p568
I00
sVcontains(savings)
p569
I00
sVcontains(get)
p570
I00
sVcontains(booking)
p571
I00
sVcontains(statement)
p572
I00
sVcontains(what)
p573
I00
sVcontains(document)
p574
I00
sVcontains(much)
p575
I00
sVcontains(make)
p576
I00
sVcontains(help)
p577
I00
sVcontains('s)
p578
I00
sVcontains(transaction)
p579
I00
sVcontains(details)
p580
I00
sVcontains(nice)
p581
I00
sVcontains(amount)
p582
I00
sVcontains(can)
p583
I00
sS'Account intent'
p584
tp585
a((dp586
Vcontains(corporate)
p587
I00
sVcontains(confirmation)
p588
I00
sVcontains(of)
p589
I00
sVcontains(current)
p590
I00
sVcontains(start)
p591
I00
sVcontains(proof)
p592
I00
sVcontains(card)
p593
I00
sVcontains(me)
p594
I00
sVcontains(certificate)
p595
I00
sVcontains(using)
p596
I00
sVcontains(have)
p597
I00
sVcontains(how)
p598
I00
sVcontains(in)
p599
I00
sVcontains(pay)
p600
I00
sVcontains(ask)
p601
I00
sVcontains(a)
p602
I00
sVcontains(on)
p603
I00
sVcontains(account)
p604
I01
sVcontains(payment)
p605
I00
sVcontains(the)
p606
I00
sVcontains(use)
p607
I00
sVcontains(Alexa)
p608
I00
sVcontains(do)
p609
I00
sVcontains(my)
p610
I01
sVcontains(checking)
p611
I01
sVcontains(for)
p612
I00
sVcontains(transfer)
p613
I00
sVcontains(starting)
p614
I00
sVcontains(hotel)
p615
I00
sVcontains(head)
p616
I00
sVcontains(tell)
p617
I00
sVcontains(city)
p618
I00
sVcontains(I)
p619
I00
sVcontains(an)
p620
I00
sVcontains(is)
p621
I00
sVcontains(doing)
p622
I00
sVcontains(money)
p623
I00
sVcontains(alexa)
p624
I00
sVcontains(citi)
p625
I00
sVcontains(online)
p626
I00
sVcontains(give)
p627
I00
sVcontains(detais)
p628
I00
sVcontains(credit)
p629
I00
sVcontains(bank)
p630
I00
sVcontains(book)
p631
I00
sVcontains(balance)
p632
I01
sVcontains(want)
p633
I00
sVcontains(accomodation)
p634
I00
sVcontains(i)
p635
I00
sVcontains(confirm)
p636
I00
sVcontains(letter)
p637
I00
sVcontains(initiate)
p638
I00
sVcontains(need)
p639
I00
sVcontains(to)
p640
I00
sVcontains(savings)
p641
I00
sVcontains(get)
p642
I00
sVcontains(booking)
p643
I00
sVcontains(statement)
p644
I00
sVcontains(what)
p645
I00
sVcontains(document)
p646
I00
sVcontains(much)
p647
I00
sVcontains(make)
p648
I00
sVcontains(help)
p649
I00
sVcontains('s)
p650
I00
sVcontains(transaction)
p651
I00
sVcontains(details)
p652
I00
sVcontains(nice)
p653
I00
sVcontains(amount)
p654
I00
sVcontains(can)
p655
I00
sS'Account intent'
p656
tp657
a((dp658
Vcontains(corporate)
p659
I00
sVcontains(confirmation)
p660
I00
sVcontains(of)
p661
I00
sVcontains(current)
p662
I00
sVcontains(start)
p663
I00
sVcontains(proof)
p664
I00
sVcontains(card)
p665
I00
sVcontains(me)
p666
I01
sVcontains(certificate)
p667
I00
sVcontains(using)
p668
I00
sVcontains(have)
p669
I00
sVcontains(how)
p670
I00
sVcontains(in)
p671
I00
sVcontains(pay)
p672
I00
sVcontains(ask)
p673
I00
sVcontains(a)
p674
I00
sVcontains(on)
p675
I00
sVcontains(account)
p676
I01
sVcontains(payment)
p677
I00
sVcontains(the)
p678
I00
sVcontains(use)
p679
I00
sVcontains(Alexa)
p680
I00
sVcontains(do)
p681
I00
sVcontains(my)
p682
I01
sVcontains(checking)
p683
I01
sVcontains(for)
p684
I00
sVcontains(transfer)
p685
I00
sVcontains(starting)
p686
I00
sVcontains(hotel)
p687
I00
sVcontains(head)
p688
I00
sVcontains(tell)
p689
I01
sVcontains(city)
p690
I00
sVcontains(I)
p691
I00
sVcontains(an)
p692
I00
sVcontains(is)
p693
I00
sVcontains(doing)
p694
I00
sVcontains(money)
p695
I00
sVcontains(alexa)
p696
I00
sVcontains(citi)
p697
I00
sVcontains(online)
p698
I00
sVcontains(give)
p699
I00
sVcontains(detais)
p700
I00
sVcontains(credit)
p701
I00
sVcontains(bank)
p702
I00
sVcontains(book)
p703
I00
sVcontains(balance)
p704
I01
sVcontains(want)
p705
I00
sVcontains(accomodation)
p706
I00
sVcontains(i)
p707
I00
sVcontains(confirm)
p708
I00
sVcontains(letter)
p709
I00
sVcontains(initiate)
p710
I00
sVcontains(need)
p711
I00
sVcontains(to)
p712
I00
sVcontains(savings)
p713
I00
sVcontains(get)
p714
I00
sVcontains(booking)
p715
I00
sVcontains(statement)
p716
I00
sVcontains(what)
p717
I00
sVcontains(document)
p718
I00
sVcontains(much)
p719
I00
sVcontains(make)
p720
I00
sVcontains(help)
p721
I00
sVcontains('s)
p722
I00
sVcontains(transaction)
p723
I00
sVcontains(details)
p724
I00
sVcontains(nice)
p725
I00
sVcontains(amount)
p726
I00
sVcontains(can)
p727
I00
sS'Account intent'
p728
tp729
a((dp730
Vcontains(corporate)
p731
I00
sVcontains(confirmation)
p732
I00
sVcontains(of)
p733
I00
sVcontains(current)
p734
I00
sVcontains(start)
p735
I00
sVcontains(proof)
p736
I00
sVcontains(card)
p737
I00
sVcontains(me)
p738
I01
sVcontains(certificate)
p739
I00
sVcontains(using)
p740
I00
sVcontains(have)
p741
I00
sVcontains(how)
p742
I00
sVcontains(in)
p743
I00
sVcontains(pay)
p744
I00
sVcontains(ask)
p745
I00
sVcontains(a)
p746
I00
sVcontains(on)
p747
I00
sVcontains(account)
p748
I00
sVcontains(payment)
p749
I00
sVcontains(the)
p750
I00
sVcontains(use)
p751
I00
sVcontains(Alexa)
p752
I00
sVcontains(do)
p753
I00
sVcontains(my)
p754
I01
sVcontains(checking)
p755
I01
sVcontains(for)
p756
I00
sVcontains(transfer)
p757
I00
sVcontains(starting)
p758
I00
sVcontains(hotel)
p759
I00
sVcontains(head)
p760
I00
sVcontains(tell)
p761
I01
sVcontains(city)
p762
I00
sVcontains(I)
p763
I00
sVcontains(an)
p764
I00
sVcontains(is)
p765
I00
sVcontains(doing)
p766
I00
sVcontains(money)
p767
I00
sVcontains(alexa)
p768
I00
sVcontains(citi)
p769
I00
sVcontains(online)
p770
I00
sVcontains(give)
p771
I00
sVcontains(detais)
p772
I00
sVcontains(credit)
p773
I00
sVcontains(bank)
p774
I00
sVcontains(book)
p775
I00
sVcontains(balance)
p776
I01
sVcontains(want)
p777
I00
sVcontains(accomodation)
p778
I00
sVcontains(i)
p779
I00
sVcontains(confirm)
p780
I00
sVcontains(letter)
p781
I00
sVcontains(initiate)
p782
I00
sVcontains(need)
p783
I00
sVcontains(to)
p784
I00
sVcontains(savings)
p785
I00
sVcontains(get)
p786
I00
sVcontains(booking)
p787
I00
sVcontains(statement)
p788
I00
sVcontains(what)
p789
I00
sVcontains(document)
p790
I00
sVcontains(much)
p791
I00
sVcontains(make)
p792
I00
sVcontains(help)
p793
I00
sVcontains('s)
p794
I00
sVcontains(transaction)
p795
I00
sVcontains(details)
p796
I00
sVcontains(nice)
p797
I00
sVcontains(amount)
p798
I00
sVcontains(can)
p799
I00
sS'Account intent'
p800
tp801
a((dp802
Vcontains(corporate)
p803
I00
sVcontains(confirmation)
p804
I00
sVcontains(of)
p805
I00
sVcontains(current)
p806
I00
sVcontains(start)
p807
I00
sVcontains(proof)
p808
I00
sVcontains(card)
p809
I00
sVcontains(me)
p810
I00
sVcontains(certificate)
p811
I00
sVcontains(using)
p812
I00
sVcontains(have)
p813
I00
sVcontains(how)
p814
I00
sVcontains(in)
p815
I00
sVcontains(pay)
p816
I00
sVcontains(ask)
p817
I01
sVcontains(a)
p818
I00
sVcontains(on)
p819
I00
sVcontains(account)
p820
I01
sVcontains(payment)
p821
I00
sVcontains(the)
p822
I00
sVcontains(use)
p823
I00
sVcontains(Alexa)
p824
I01
sVcontains(do)
p825
I00
sVcontains(my)
p826
I01
sVcontains(checking)
p827
I01
sVcontains(for)
p828
I00
sVcontains(transfer)
p829
I00
sVcontains(starting)
p830
I00
sVcontains(hotel)
p831
I00
sVcontains(head)
p832
I00
sVcontains(tell)
p833
I00
sVcontains(city)
p834
I01
sVcontains(I)
p835
I00
sVcontains(an)
p836
I00
sVcontains(is)
p837
I01
sVcontains(doing)
p838
I00
sVcontains(money)
p839
I00
sVcontains(alexa)
p840
I00
sVcontains(citi)
p841
I00
sVcontains(online)
p842
I00
sVcontains(give)
p843
I00
sVcontains(detais)
p844
I00
sVcontains(credit)
p845
I00
sVcontains(bank)
p846
I01
sVcontains(book)
p847
I00
sVcontains(balance)
p848
I01
sVcontains(want)
p849
I00
sVcontains(accomodation)
p850
I00
sVcontains(i)
p851
I00
sVcontains(confirm)
p852
I00
sVcontains(letter)
p853
I00
sVcontains(initiate)
p854
I00
sVcontains(need)
p855
I00
sVcontains(to)
p856
I00
sVcontains(savings)
p857
I00
sVcontains(get)
p858
I00
sVcontains(booking)
p859
I00
sVcontains(statement)
p860
I00
sVcontains(what)
p861
I01
sVcontains(document)
p862
I00
sVcontains(much)
p863
I00
sVcontains(make)
p864
I00
sVcontains(help)
p865
I00
sVcontains('s)
p866
I00
sVcontains(transaction)
p867
I00
sVcontains(details)
p868
I00
sVcontains(nice)
p869
I00
sVcontains(amount)
p870
I00
sVcontains(can)
p871
I00
sS'Account intent'
p872
tp873
a((dp874
Vcontains(corporate)
p875
I00
sVcontains(confirmation)
p876
I00
sVcontains(of)
p877
I00
sVcontains(current)
p878
I00
sVcontains(start)
p879
I00
sVcontains(proof)
p880
I00
sVcontains(card)
p881
I01
sVcontains(me)
p882
I00
sVcontains(certificate)
p883
I00
sVcontains(using)
p884
I00
sVcontains(have)
p885
I00
sVcontains(how)
p886
I00
sVcontains(in)
p887
I00
sVcontains(pay)
p888
I00
sVcontains(ask)
p889
I01
sVcontains(a)
p890
I00
sVcontains(on)
p891
I01
sVcontains(account)
p892
I00
sVcontains(payment)
p893
I00
sVcontains(the)
p894
I01
sVcontains(use)
p895
I00
sVcontains(Alexa)
p896
I00
sVcontains(do)
p897
I00
sVcontains(my)
p898
I01
sVcontains(checking)
p899
I00
sVcontains(for)
p900
I00
sVcontains(transfer)
p901
I00
sVcontains(starting)
p902
I00
sVcontains(hotel)
p903
I00
sVcontains(head)
p904
I00
sVcontains(tell)
p905
I00
sVcontains(city)
p906
I01
sVcontains(I)
p907
I00
sVcontains(an)
p908
I00
sVcontains(is)
p909
I00
sVcontains(doing)
p910
I00
sVcontains(money)
p911
I00
sVcontains(alexa)
p912
I01
sVcontains(citi)
p913
I00
sVcontains(online)
p914
I00
sVcontains(give)
p915
I00
sVcontains(detais)
p916
I00
sVcontains(credit)
p917
I01
sVcontains(bank)
p918
I01
sVcontains(book)
p919
I00
sVcontains(balance)
p920
I01
sVcontains(want)
p921
I00
sVcontains(accomodation)
p922
I00
sVcontains(i)
p923
I00
sVcontains(confirm)
p924
I00
sVcontains(letter)
p925
I00
sVcontains(initiate)
p926
I00
sVcontains(need)
p927
I00
sVcontains(to)
p928
I00
sVcontains(savings)
p929
I00
sVcontains(get)
p930
I00
sVcontains(booking)
p931
I00
sVcontains(statement)
p932
I00
sVcontains(what)
p933
I01
sVcontains(document)
p934
I00
sVcontains(much)
p935
I00
sVcontains(make)
p936
I00
sVcontains(help)
p937
I00
sVcontains('s)
p938
I00
sVcontains(transaction)
p939
I00
sVcontains(details)
p940
I00
sVcontains(nice)
p941
I00
sVcontains(amount)
p942
I00
sVcontains(can)
p943
I00
sS'Account intent'
p944
tp945
a((dp946
Vcontains(corporate)
p947
I00
sVcontains(confirmation)
p948
I00
sVcontains(of)
p949
I00
sVcontains(current)
p950
I00
sVcontains(start)
p951
I00
sVcontains(proof)
p952
I00
sVcontains(card)
p953
I01
sVcontains(me)
p954
I00
sVcontains(certificate)
p955
I00
sVcontains(using)
p956
I00
sVcontains(have)
p957
I00
sVcontains(how)
p958
I00
sVcontains(in)
p959
I00
sVcontains(pay)
p960
I00
sVcontains(ask)
p961
I00
sVcontains(a)
p962
I00
sVcontains(on)
p963
I01
sVcontains(account)
p964
I00
sVcontains(payment)
p965
I00
sVcontains(the)
p966
I01
sVcontains(use)
p967
I00
sVcontains(Alexa)
p968
I00
sVcontains(do)
p969
I00
sVcontains(my)
p970
I01
sVcontains(checking)
p971
I00
sVcontains(for)
p972
I00
sVcontains(transfer)
p973
I00
sVcontains(starting)
p974
I00
sVcontains(hotel)
p975
I00
sVcontains(head)
p976
I00
sVcontains(tell)
p977
I00
sVcontains(city)
p978
I00
sVcontains(I)
p979
I00
sVcontains(an)
p980
I00
sVcontains(is)
p981
I00
sVcontains(doing)
p982
I00
sVcontains(money)
p983
I00
sVcontains(alexa)
p984
I00
sVcontains(citi)
p985
I00
sVcontains(online)
p986
I00
sVcontains(give)
p987
I00
sVcontains(detais)
p988
I00
sVcontains(credit)
p989
I01
sVcontains(bank)
p990
I00
sVcontains(book)
p991
I00
sVcontains(balance)
p992
I01
sVcontains(want)
p993
I00
sVcontains(accomodation)
p994
I00
sVcontains(i)
p995
I00
sVcontains(confirm)
p996
I00
sVcontains(letter)
p997
I00
sVcontains(initiate)
p998
I00
sVcontains(need)
p999
I00
sVcontains(to)
p1000
I00
sVcontains(savings)
p1001
I00
sVcontains(get)
p1002
I00
sVcontains(booking)
p1003
I00
sVcontains(statement)
p1004
I00
sVcontains(what)
p1005
I01
sVcontains(document)
p1006
I00
sVcontains(much)
p1007
I00
sVcontains(make)
p1008
I00
sVcontains(help)
p1009
I00
sVcontains('s)
p1010
I00
sVcontains(transaction)
p1011
I00
sVcontains(details)
p1012
I00
sVcontains(nice)
p1013
I00
sVcontains(amount)
p1014
I00
sVcontains(can)
p1015
I00
sS'Account intent'
p1016
tp1017
a((dp1018
Vcontains(corporate)
p1019
I00
sVcontains(confirmation)
p1020
I00
sVcontains(of)
p1021
I00
sVcontains(current)
p1022
I00
sVcontains(start)
p1023
I00
sVcontains(proof)
p1024
I00
sVcontains(card)
p1025
I01
sVcontains(me)
p1026
I00
sVcontains(certificate)
p1027
I00
sVcontains(using)
p1028
I00
sVcontains(have)
p1029
I00
sVcontains(how)
p1030
I00
sVcontains(in)
p1031
I00
sVcontains(pay)
p1032
I00
sVcontains(ask)
p1033
I00
sVcontains(a)
p1034
I00
sVcontains(on)
p1035
I01
sVcontains(account)
p1036
I00
sVcontains(payment)
p1037
I00
sVcontains(the)
p1038
I01
sVcontains(use)
p1039
I00
sVcontains(Alexa)
p1040
I00
sVcontains(do)
p1041
I00
sVcontains(my)
p1042
I01
sVcontains(checking)
p1043
I00
sVcontains(for)
p1044
I00
sVcontains(transfer)
p1045
I00
sVcontains(starting)
p1046
I00
sVcontains(hotel)
p1047
I00
sVcontains(head)
p1048
I00
sVcontains(tell)
p1049
I00
sVcontains(city)
p1050
I00
sVcontains(I)
p1051
I00
sVcontains(an)
p1052
I00
sVcontains(is)
p1053
I01
sVcontains(doing)
p1054
I00
sVcontains(money)
p1055
I00
sVcontains(alexa)
p1056
I00
sVcontains(citi)
p1057
I00
sVcontains(online)
p1058
I00
sVcontains(give)
p1059
I00
sVcontains(detais)
p1060
I00
sVcontains(credit)
p1061
I01
sVcontains(bank)
p1062
I00
sVcontains(book)
p1063
I00
sVcontains(balance)
p1064
I01
sVcontains(want)
p1065
I00
sVcontains(accomodation)
p1066
I00
sVcontains(i)
p1067
I00
sVcontains(confirm)
p1068
I00
sVcontains(letter)
p1069
I00
sVcontains(initiate)
p1070
I00
sVcontains(need)
p1071
I00
sVcontains(to)
p1072
I00
sVcontains(savings)
p1073
I00
sVcontains(get)
p1074
I00
sVcontains(booking)
p1075
I00
sVcontains(statement)
p1076
I00
sVcontains(what)
p1077
I01
sVcontains(document)
p1078
I00
sVcontains(much)
p1079
I00
sVcontains(make)
p1080
I00
sVcontains(help)
p1081
I00
sVcontains('s)
p1082
I00
sVcontains(transaction)
p1083
I00
sVcontains(details)
p1084
I00
sVcontains(nice)
p1085
I00
sVcontains(amount)
p1086
I00
sVcontains(can)
p1087
I00
sS'Account intent'
p1088
tp1089
a((dp1090
Vcontains(corporate)
p1091
I00
sVcontains(confirmation)
p1092
I00
sVcontains(of)
p1093
I00
sVcontains(current)
p1094
I00
sVcontains(start)
p1095
I00
sVcontains(proof)
p1096
I00
sVcontains(card)
p1097
I01
sVcontains(me)
p1098
I00
sVcontains(certificate)
p1099
I00
sVcontains(using)
p1100
I00
sVcontains(have)
p1101
I00
sVcontains(how)
p1102
I00
sVcontains(in)
p1103
I00
sVcontains(pay)
p1104
I00
sVcontains(ask)
p1105
I00
sVcontains(a)
p1106
I00
sVcontains(on)
p1107
I00
sVcontains(account)
p1108
I00
sVcontains(payment)
p1109
I00
sVcontains(the)
p1110
I00
sVcontains(use)
p1111
I00
sVcontains(Alexa)
p1112
I00
sVcontains(do)
p1113
I00
sVcontains(my)
p1114
I01
sVcontains(checking)
p1115
I00
sVcontains(for)
p1116
I00
sVcontains(transfer)
p1117
I00
sVcontains(starting)
p1118
I00
sVcontains(hotel)
p1119
I00
sVcontains(head)
p1120
I00
sVcontains(tell)
p1121
I00
sVcontains(city)
p1122
I00
sVcontains(I)
p1123
I00
sVcontains(an)
p1124
I00
sVcontains(is)
p1125
I00
sVcontains(doing)
p1126
I00
sVcontains(money)
p1127
I00
sVcontains(alexa)
p1128
I00
sVcontains(citi)
p1129
I00
sVcontains(online)
p1130
I00
sVcontains(give)
p1131
I00
sVcontains(detais)
p1132
I00
sVcontains(credit)
p1133
I01
sVcontains(bank)
p1134
I00
sVcontains(book)
p1135
I00
sVcontains(balance)
p1136
I01
sVcontains(want)
p1137
I00
sVcontains(accomodation)
p1138
I00
sVcontains(i)
p1139
I00
sVcontains(confirm)
p1140
I00
sVcontains(letter)
p1141
I00
sVcontains(initiate)
p1142
I00
sVcontains(need)
p1143
I00
sVcontains(to)
p1144
I00
sVcontains(savings)
p1145
I00
sVcontains(get)
p1146
I00
sVcontains(booking)
p1147
I00
sVcontains(statement)
p1148
I00
sVcontains(what)
p1149
I00
sVcontains(document)
p1150
I00
sVcontains(much)
p1151
I00
sVcontains(make)
p1152
I00
sVcontains(help)
p1153
I00
sVcontains('s)
p1154
I00
sVcontains(transaction)
p1155
I00
sVcontains(details)
p1156
I00
sVcontains(nice)
p1157
I00
sVcontains(amount)
p1158
I00
sVcontains(can)
p1159
I00
sS'Account intent'
p1160
tp1161
a((dp1162
Vcontains(corporate)
p1163
I00
sVcontains(confirmation)
p1164
I00
sVcontains(of)
p1165
I00
sVcontains(current)
p1166
I00
sVcontains(start)
p1167
I00
sVcontains(proof)
p1168
I00
sVcontains(card)
p1169
I01
sVcontains(me)
p1170
I00
sVcontains(certificate)
p1171
I00
sVcontains(using)
p1172
I00
sVcontains(have)
p1173
I00
sVcontains(how)
p1174
I00
sVcontains(in)
p1175
I00
sVcontains(pay)
p1176
I00
sVcontains(ask)
p1177
I00
sVcontains(a)
p1178
I00
sVcontains(on)
p1179
I01
sVcontains(account)
p1180
I00
sVcontains(payment)
p1181
I00
sVcontains(the)
p1182
I01
sVcontains(use)
p1183
I00
sVcontains(Alexa)
p1184
I00
sVcontains(do)
p1185
I00
sVcontains(my)
p1186
I01
sVcontains(checking)
p1187
I00
sVcontains(for)
p1188
I00
sVcontains(transfer)
p1189
I00
sVcontains(starting)
p1190
I00
sVcontains(hotel)
p1191
I00
sVcontains(head)
p1192
I00
sVcontains(tell)
p1193
I00
sVcontains(city)
p1194
I00
sVcontains(I)
p1195
I00
sVcontains(an)
p1196
I00
sVcontains(is)
p1197
I01
sVcontains(doing)
p1198
I00
sVcontains(money)
p1199
I00
sVcontains(alexa)
p1200
I00
sVcontains(citi)
p1201
I00
sVcontains(online)
p1202
I00
sVcontains(give)
p1203
I00
sVcontains(detais)
p1204
I00
sVcontains(credit)
p1205
I01
sVcontains(bank)
p1206
I00
sVcontains(book)
p1207
I00
sVcontains(balance)
p1208
I01
sVcontains(want)
p1209
I00
sVcontains(accomodation)
p1210
I00
sVcontains(i)
p1211
I00
sVcontains(confirm)
p1212
I00
sVcontains(letter)
p1213
I00
sVcontains(initiate)
p1214
I00
sVcontains(need)
p1215
I00
sVcontains(to)
p1216
I00
sVcontains(savings)
p1217
I00
sVcontains(get)
p1218
I00
sVcontains(booking)
p1219
I00
sVcontains(statement)
p1220
I00
sVcontains(what)
p1221
I01
sVcontains(document)
p1222
I00
sVcontains(much)
p1223
I00
sVcontains(make)
p1224
I00
sVcontains(help)
p1225
I00
sVcontains('s)
p1226
I00
sVcontains(transaction)
p1227
I00
sVcontains(details)
p1228
I00
sVcontains(nice)
p1229
I00
sVcontains(amount)
p1230
I00
sVcontains(can)
p1231
I00
sS'Account intent'
p1232
tp1233
a((dp1234
Vcontains(corporate)
p1235
I00
sVcontains(confirmation)
p1236
I00
sVcontains(of)
p1237
I00
sVcontains(current)
p1238
I00
sVcontains(start)
p1239
I00
sVcontains(proof)
p1240
I00
sVcontains(card)
p1241
I00
sVcontains(me)
p1242
I00
sVcontains(certificate)
p1243
I00
sVcontains(using)
p1244
I00
sVcontains(have)
p1245
I00
sVcontains(how)
p1246
I00
sVcontains(in)
p1247
I00
sVcontains(pay)
p1248
I00
sVcontains(ask)
p1249
I00
sVcontains(a)
p1250
I00
sVcontains(on)
p1251
I00
sVcontains(account)
p1252
I00
sVcontains(payment)
p1253
I00
sVcontains(the)
p1254
I00
sVcontains(use)
p1255
I00
sVcontains(Alexa)
p1256
I00
sVcontains(do)
p1257
I00
sVcontains(my)
p1258
I00
sVcontains(checking)
p1259
I00
sVcontains(for)
p1260
I00
sVcontains(transfer)
p1261
I00
sVcontains(starting)
p1262
I00
sVcontains(hotel)
p1263
I00
sVcontains(head)
p1264
I00
sVcontains(tell)
p1265
I00
sVcontains(city)
p1266
I00
sVcontains(I)
p1267
I00
sVcontains(an)
p1268
I00
sVcontains(is)
p1269
I00
sVcontains(doing)
p1270
I00
sVcontains(money)
p1271
I00
sVcontains(alexa)
p1272
I00
sVcontains(citi)
p1273
I00
sVcontains(online)
p1274
I00
sVcontains(give)
p1275
I00
sVcontains(detais)
p1276
I00
sVcontains(credit)
p1277
I00
sVcontains(bank)
p1278
I00
sVcontains(book)
p1279
I00
sVcontains(balance)
p1280
I01
sVcontains(want)
p1281
I00
sVcontains(accomodation)
p1282
I00
sVcontains(i)
p1283
I00
sVcontains(confirm)
p1284
I00
sVcontains(letter)
p1285
I00
sVcontains(initiate)
p1286
I00
sVcontains(need)
p1287
I00
sVcontains(to)
p1288
I00
sVcontains(savings)
p1289
I01
sVcontains(get)
p1290
I00
sVcontains(booking)
p1291
I00
sVcontains(statement)
p1292
I00
sVcontains(what)
p1293
I00
sVcontains(document)
p1294
I00
sVcontains(much)
p1295
I00
sVcontains(make)
p1296
I00
sVcontains(help)
p1297
I00
sVcontains('s)
p1298
I00
sVcontains(transaction)
p1299
I00
sVcontains(details)
p1300
I00
sVcontains(nice)
p1301
I00
sVcontains(amount)
p1302
I00
sVcontains(can)
p1303
I00
sS'Account intent'
p1304
tp1305
a((dp1306
Vcontains(corporate)
p1307
I00
sVcontains(confirmation)
p1308
I00
sVcontains(of)
p1309
I00
sVcontains(current)
p1310
I00
sVcontains(start)
p1311
I00
sVcontains(proof)
p1312
I00
sVcontains(card)
p1313
I00
sVcontains(me)
p1314
I00
sVcontains(certificate)
p1315
I00
sVcontains(using)
p1316
I00
sVcontains(have)
p1317
I00
sVcontains(how)
p1318
I00
sVcontains(in)
p1319
I00
sVcontains(pay)
p1320
I00
sVcontains(ask)
p1321
I00
sVcontains(a)
p1322
I00
sVcontains(on)
p1323
I00
sVcontains(account)
p1324
I00
sVcontains(payment)
p1325
I00
sVcontains(the)
p1326
I00
sVcontains(use)
p1327
I00
sVcontains(Alexa)
p1328
I00
sVcontains(do)
p1329
I00
sVcontains(my)
p1330
I00
sVcontains(checking)
p1331
I00
sVcontains(for)
p1332
I00
sVcontains(transfer)
p1333
I00
sVcontains(starting)
p1334
I00
sVcontains(hotel)
p1335
I00
sVcontains(head)
p1336
I00
sVcontains(tell)
p1337
I00
sVcontains(city)
p1338
I00
sVcontains(I)
p1339
I00
sVcontains(an)
p1340
I00
sVcontains(is)
p1341
I00
sVcontains(doing)
p1342
I00
sVcontains(money)
p1343
I00
sVcontains(alexa)
p1344
I00
sVcontains(citi)
p1345
I00
sVcontains(online)
p1346
I00
sVcontains(give)
p1347
I00
sVcontains(detais)
p1348
I00
sVcontains(credit)
p1349
I01
sVcontains(bank)
p1350
I00
sVcontains(book)
p1351
I00
sVcontains(balance)
p1352
I01
sVcontains(want)
p1353
I00
sVcontains(accomodation)
p1354
I00
sVcontains(i)
p1355
I00
sVcontains(confirm)
p1356
I00
sVcontains(letter)
p1357
I00
sVcontains(initiate)
p1358
I00
sVcontains(need)
p1359
I00
sVcontains(to)
p1360
I00
sVcontains(savings)
p1361
I00
sVcontains(get)
p1362
I00
sVcontains(booking)
p1363
I00
sVcontains(statement)
p1364
I00
sVcontains(what)
p1365
I00
sVcontains(document)
p1366
I00
sVcontains(much)
p1367
I00
sVcontains(make)
p1368
I00
sVcontains(help)
p1369
I00
sVcontains('s)
p1370
I00
sVcontains(transaction)
p1371
I00
sVcontains(details)
p1372
I00
sVcontains(nice)
p1373
I00
sVcontains(amount)
p1374
I00
sVcontains(can)
p1375
I00
sS'Account intent'
p1376
tp1377
a((dp1378
Vcontains(corporate)
p1379
I00
sVcontains(confirmation)
p1380
I00
sVcontains(of)
p1381
I00
sVcontains(current)
p1382
I00
sVcontains(start)
p1383
I00
sVcontains(proof)
p1384
I00
sVcontains(card)
p1385
I01
sVcontains(me)
p1386
I00
sVcontains(certificate)
p1387
I00
sVcontains(using)
p1388
I00
sVcontains(have)
p1389
I00
sVcontains(how)
p1390
I00
sVcontains(in)
p1391
I00
sVcontains(pay)
p1392
I00
sVcontains(ask)
p1393
I00
sVcontains(a)
p1394
I00
sVcontains(on)
p1395
I00
sVcontains(account)
p1396
I00
sVcontains(payment)
p1397
I00
sVcontains(the)
p1398
I00
sVcontains(use)
p1399
I00
sVcontains(Alexa)
p1400
I00
sVcontains(do)
p1401
I00
sVcontains(my)
p1402
I00
sVcontains(checking)
p1403
I00
sVcontains(for)
p1404
I00
sVcontains(transfer)
p1405
I00
sVcontains(starting)
p1406
I00
sVcontains(hotel)
p1407
I00
sVcontains(head)
p1408
I00
sVcontains(tell)
p1409
I00
sVcontains(city)
p1410
I00
sVcontains(I)
p1411
I00
sVcontains(an)
p1412
I00
sVcontains(is)
p1413
I00
sVcontains(doing)
p1414
I00
sVcontains(money)
p1415
I00
sVcontains(alexa)
p1416
I00
sVcontains(citi)
p1417
I00
sVcontains(online)
p1418
I00
sVcontains(give)
p1419
I00
sVcontains(detais)
p1420
I00
sVcontains(credit)
p1421
I01
sVcontains(bank)
p1422
I00
sVcontains(book)
p1423
I00
sVcontains(balance)
p1424
I01
sVcontains(want)
p1425
I00
sVcontains(accomodation)
p1426
I00
sVcontains(i)
p1427
I00
sVcontains(confirm)
p1428
I00
sVcontains(letter)
p1429
I00
sVcontains(initiate)
p1430
I00
sVcontains(need)
p1431
I00
sVcontains(to)
p1432
I00
sVcontains(savings)
p1433
I00
sVcontains(get)
p1434
I00
sVcontains(booking)
p1435
I00
sVcontains(statement)
p1436
I00
sVcontains(what)
p1437
I00
sVcontains(document)
p1438
I00
sVcontains(much)
p1439
I00
sVcontains(make)
p1440
I00
sVcontains(help)
p1441
I00
sVcontains('s)
p1442
I00
sVcontains(transaction)
p1443
I00
sVcontains(details)
p1444
I00
sVcontains(nice)
p1445
I00
sVcontains(amount)
p1446
I00
sVcontains(can)
p1447
I00
sS'Account intent'
p1448
tp1449
a((dp1450
Vcontains(corporate)
p1451
I00
sVcontains(confirmation)
p1452
I00
sVcontains(of)
p1453
I00
sVcontains(current)
p1454
I00
sVcontains(start)
p1455
I00
sVcontains(proof)
p1456
I00
sVcontains(card)
p1457
I00
sVcontains(me)
p1458
I00
sVcontains(certificate)
p1459
I00
sVcontains(using)
p1460
I00
sVcontains(have)
p1461
I00
sVcontains(how)
p1462
I00
sVcontains(in)
p1463
I00
sVcontains(pay)
p1464
I00
sVcontains(ask)
p1465
I00
sVcontains(a)
p1466
I00
sVcontains(on)
p1467
I00
sVcontains(account)
p1468
I00
sVcontains(payment)
p1469
I00
sVcontains(the)
p1470
I00
sVcontains(use)
p1471
I00
sVcontains(Alexa)
p1472
I00
sVcontains(do)
p1473
I00
sVcontains(my)
p1474
I00
sVcontains(checking)
p1475
I00
sVcontains(for)
p1476
I00
sVcontains(transfer)
p1477
I00
sVcontains(starting)
p1478
I00
sVcontains(hotel)
p1479
I00
sVcontains(head)
p1480
I00
sVcontains(tell)
p1481
I00
sVcontains(city)
p1482
I00
sVcontains(I)
p1483
I00
sVcontains(an)
p1484
I00
sVcontains(is)
p1485
I00
sVcontains(doing)
p1486
I00
sVcontains(money)
p1487
I00
sVcontains(alexa)
p1488
I00
sVcontains(citi)
p1489
I00
sVcontains(online)
p1490
I00
sVcontains(give)
p1491
I00
sVcontains(detais)
p1492
I00
sVcontains(credit)
p1493
I00
sVcontains(bank)
p1494
I00
sVcontains(book)
p1495
I00
sVcontains(balance)
p1496
I01
sVcontains(want)
p1497
I00
sVcontains(accomodation)
p1498
I00
sVcontains(i)
p1499
I00
sVcontains(confirm)
p1500
I00
sVcontains(letter)
p1501
I00
sVcontains(initiate)
p1502
I00
sVcontains(need)
p1503
I00
sVcontains(to)
p1504
I00
sVcontains(savings)
p1505
I01
sVcontains(get)
p1506
I00
sVcontains(booking)
p1507
I00
sVcontains(statement)
p1508
I00
sVcontains(what)
p1509
I00
sVcontains(document)
p1510
I00
sVcontains(much)
p1511
I00
sVcontains(make)
p1512
I00
sVcontains(help)
p1513
I00
sVcontains('s)
p1514
I00
sVcontains(transaction)
p1515
I00
sVcontains(details)
p1516
I00
sVcontains(nice)
p1517
I00
sVcontains(amount)
p1518
I00
sVcontains(can)
p1519
I00
sS'Account intent'
p1520
tp1521
a((dp1522
Vcontains(corporate)
p1523
I00
sVcontains(confirmation)
p1524
I00
sVcontains(of)
p1525
I00
sVcontains(current)
p1526
I00
sVcontains(start)
p1527
I00
sVcontains(proof)
p1528
I00
sVcontains(card)
p1529
I00
sVcontains(me)
p1530
I00
sVcontains(certificate)
p1531
I00
sVcontains(using)
p1532
I00
sVcontains(have)
p1533
I00
sVcontains(how)
p1534
I00
sVcontains(in)
p1535
I00
sVcontains(pay)
p1536
I00
sVcontains(ask)
p1537
I00
sVcontains(a)
p1538
I00
sVcontains(on)
p1539
I00
sVcontains(account)
p1540
I00
sVcontains(payment)
p1541
I00
sVcontains(the)
p1542
I00
sVcontains(use)
p1543
I00
sVcontains(Alexa)
p1544
I00
sVcontains(do)
p1545
I00
sVcontains(my)
p1546
I00
sVcontains(checking)
p1547
I00
sVcontains(for)
p1548
I00
sVcontains(transfer)
p1549
I01
sVcontains(starting)
p1550
I00
sVcontains(hotel)
p1551
I00
sVcontains(head)
p1552
I00
sVcontains(tell)
p1553
I00
sVcontains(city)
p1554
I00
sVcontains(I)
p1555
I00
sVcontains(an)
p1556
I00
sVcontains(is)
p1557
I00
sVcontains(doing)
p1558
I00
sVcontains(money)
p1559
I00
sVcontains(alexa)
p1560
I00
sVcontains(citi)
p1561
I00
sVcontains(online)
p1562
I00
sVcontains(give)
p1563
I00
sVcontains(detais)
p1564
I00
sVcontains(credit)
p1565
I00
sVcontains(bank)
p1566
I00
sVcontains(book)
p1567
I00
sVcontains(balance)
p1568
I00
sVcontains(want)
p1569
I00
sVcontains(accomodation)
p1570
I00
sVcontains(i)
p1571
I00
sVcontains(confirm)
p1572
I00
sVcontains(letter)
p1573
I00
sVcontains(initiate)
p1574
I00
sVcontains(need)
p1575
I00
sVcontains(to)
p1576
I01
sVcontains(savings)
p1577
I00
sVcontains(get)
p1578
I00
sVcontains(booking)
p1579
I00
sVcontains(statement)
p1580
I00
sVcontains(what)
p1581
I00
sVcontains(document)
p1582
I00
sVcontains(much)
p1583
I00
sVcontains(make)
p1584
I00
sVcontains(help)
p1585
I00
sVcontains('s)
p1586
I00
sVcontains(transaction)
p1587
I00
sVcontains(details)
p1588
I00
sVcontains(nice)
p1589
I00
sVcontains(amount)
p1590
I01
sVcontains(can)
p1591
I00
sS'Transfer intent'
p1592
tp1593
a((dp1594
Vcontains(corporate)
p1595
I00
sVcontains(confirmation)
p1596
I00
sVcontains(of)
p1597
I00
sVcontains(current)
p1598
I00
sVcontains(start)
p1599
I00
sVcontains(proof)
p1600
I00
sVcontains(card)
p1601
I00
sVcontains(me)
p1602
I00
sVcontains(certificate)
p1603
I00
sVcontains(using)
p1604
I00
sVcontains(have)
p1605
I00
sVcontains(how)
p1606
I00
sVcontains(in)
p1607
I00
sVcontains(pay)
p1608
I00
sVcontains(ask)
p1609
I00
sVcontains(a)
p1610
I00
sVcontains(on)
p1611
I00
sVcontains(account)
p1612
I00
sVcontains(payment)
p1613
I00
sVcontains(the)
p1614
I00
sVcontains(use)
p1615
I00
sVcontains(Alexa)
p1616
I00
sVcontains(do)
p1617
I00
sVcontains(my)
p1618
I00
sVcontains(checking)
p1619
I00
sVcontains(for)
p1620
I00
sVcontains(transfer)
p1621
I01
sVcontains(starting)
p1622
I00
sVcontains(hotel)
p1623
I00
sVcontains(head)
p1624
I00
sVcontains(tell)
p1625
I00
sVcontains(city)
p1626
I00
sVcontains(I)
p1627
I01
sVcontains(an)
p1628
I00
sVcontains(is)
p1629
I00
sVcontains(doing)
p1630
I00
sVcontains(money)
p1631
I00
sVcontains(alexa)
p1632
I00
sVcontains(citi)
p1633
I00
sVcontains(online)
p1634
I00
sVcontains(give)
p1635
I00
sVcontains(detais)
p1636
I00
sVcontains(credit)
p1637
I00
sVcontains(bank)
p1638
I00
sVcontains(book)
p1639
I00
sVcontains(balance)
p1640
I00
sVcontains(want)
p1641
I01
sVcontains(accomodation)
p1642
I00
sVcontains(i)
p1643
I00
sVcontains(confirm)
p1644
I00
sVcontains(letter)
p1645
I00
sVcontains(initiate)
p1646
I00
sVcontains(need)
p1647
I00
sVcontains(to)
p1648
I01
sVcontains(savings)
p1649
I00
sVcontains(get)
p1650
I00
sVcontains(booking)
p1651
I00
sVcontains(statement)
p1652
I00
sVcontains(what)
p1653
I00
sVcontains(document)
p1654
I00
sVcontains(much)
p1655
I00
sVcontains(make)
p1656
I00
sVcontains(help)
p1657
I00
sVcontains('s)
p1658
I00
sVcontains(transaction)
p1659
I00
sVcontains(details)
p1660
I00
sVcontains(nice)
p1661
I00
sVcontains(amount)
p1662
I01
sVcontains(can)
p1663
I00
sS'Transfer intent'
p1664
tp1665
a((dp1666
Vcontains(corporate)
p1667
I00
sVcontains(confirmation)
p1668
I00
sVcontains(of)
p1669
I00
sVcontains(current)
p1670
I00
sVcontains(start)
p1671
I00
sVcontains(proof)
p1672
I00
sVcontains(card)
p1673
I00
sVcontains(me)
p1674
I00
sVcontains(certificate)
p1675
I00
sVcontains(using)
p1676
I00
sVcontains(have)
p1677
I00
sVcontains(how)
p1678
I00
sVcontains(in)
p1679
I00
sVcontains(pay)
p1680
I00
sVcontains(ask)
p1681
I00
sVcontains(a)
p1682
I01
sVcontains(on)
p1683
I00
sVcontains(account)
p1684
I00
sVcontains(payment)
p1685
I01
sVcontains(the)
p1686
I00
sVcontains(use)
p1687
I00
sVcontains(Alexa)
p1688
I00
sVcontains(do)
p1689
I00
sVcontains(my)
p1690
I00
sVcontains(checking)
p1691
I00
sVcontains(for)
p1692
I00
sVcontains(transfer)
p1693
I00
sVcontains(starting)
p1694
I00
sVcontains(hotel)
p1695
I00
sVcontains(head)
p1696
I00
sVcontains(tell)
p1697
I00
sVcontains(city)
p1698
I00
sVcontains(I)
p1699
I00
sVcontains(an)
p1700
I00
sVcontains(is)
p1701
I00
sVcontains(doing)
p1702
I00
sVcontains(money)
p1703
I00
sVcontains(alexa)
p1704
I00
sVcontains(citi)
p1705
I00
sVcontains(online)
p1706
I00
sVcontains(give)
p1707
I00
sVcontains(detais)
p1708
I00
sVcontains(credit)
p1709
I00
sVcontains(bank)
p1710
I00
sVcontains(book)
p1711
I00
sVcontains(balance)
p1712
I00
sVcontains(want)
p1713
I01
sVcontains(accomodation)
p1714
I00
sVcontains(i)
p1715
I01
sVcontains(confirm)
p1716
I00
sVcontains(letter)
p1717
I00
sVcontains(initiate)
p1718
I00
sVcontains(need)
p1719
I00
sVcontains(to)
p1720
I01
sVcontains(savings)
p1721
I00
sVcontains(get)
p1722
I00
sVcontains(booking)
p1723
I00
sVcontains(statement)
p1724
I00
sVcontains(what)
p1725
I00
sVcontains(document)
p1726
I00
sVcontains(much)
p1727
I00
sVcontains(make)
p1728
I01
sVcontains(help)
p1729
I00
sVcontains('s)
p1730
I00
sVcontains(transaction)
p1731
I00
sVcontains(details)
p1732
I00
sVcontains(nice)
p1733
I00
sVcontains(amount)
p1734
I00
sVcontains(can)
p1735
I00
sS'Transfer intent'
p1736
tp1737
a((dp1738
Vcontains(corporate)
p1739
I00
sVcontains(confirmation)
p1740
I00
sVcontains(of)
p1741
I00
sVcontains(current)
p1742
I00
sVcontains(start)
p1743
I00
sVcontains(proof)
p1744
I00
sVcontains(card)
p1745
I00
sVcontains(me)
p1746
I00
sVcontains(certificate)
p1747
I00
sVcontains(using)
p1748
I00
sVcontains(have)
p1749
I00
sVcontains(how)
p1750
I00
sVcontains(in)
p1751
I00
sVcontains(pay)
p1752
I00
sVcontains(ask)
p1753
I00
sVcontains(a)
p1754
I00
sVcontains(on)
p1755
I00
sVcontains(account)
p1756
I00
sVcontains(payment)
p1757
I01
sVcontains(the)
p1758
I00
sVcontains(use)
p1759
I00
sVcontains(Alexa)
p1760
I00
sVcontains(do)
p1761
I00
sVcontains(my)
p1762
I00
sVcontains(checking)
p1763
I00
sVcontains(for)
p1764
I00
sVcontains(transfer)
p1765
I00
sVcontains(starting)
p1766
I00
sVcontains(hotel)
p1767
I00
sVcontains(head)
p1768
I00
sVcontains(tell)
p1769
I00
sVcontains(city)
p1770
I00
sVcontains(I)
p1771
I00
sVcontains(an)
p1772
I00
sVcontains(is)
p1773
I00
sVcontains(doing)
p1774
I00
sVcontains(money)
p1775
I00
sVcontains(alexa)
p1776
I00
sVcontains(citi)
p1777
I00
sVcontains(online)
p1778
I00
sVcontains(give)
p1779
I00
sVcontains(detais)
p1780
I00
sVcontains(credit)
p1781
I00
sVcontains(bank)
p1782
I00
sVcontains(book)
p1783
I00
sVcontains(balance)
p1784
I00
sVcontains(want)
p1785
I00
sVcontains(accomodation)
p1786
I00
sVcontains(i)
p1787
I00
sVcontains(confirm)
p1788
I00
sVcontains(letter)
p1789
I00
sVcontains(initiate)
p1790
I00
sVcontains(need)
p1791
I00
sVcontains(to)
p1792
I00
sVcontains(savings)
p1793
I00
sVcontains(get)
p1794
I00
sVcontains(booking)
p1795
I00
sVcontains(statement)
p1796
I00
sVcontains(what)
p1797
I00
sVcontains(document)
p1798
I00
sVcontains(much)
p1799
I00
sVcontains(make)
p1800
I01
sVcontains(help)
p1801
I00
sVcontains('s)
p1802
I00
sVcontains(transaction)
p1803
I00
sVcontains(details)
p1804
I00
sVcontains(nice)
p1805
I00
sVcontains(amount)
p1806
I00
sVcontains(can)
p1807
I00
sS'Transfer intent'
p1808
tp1809
a((dp1810
Vcontains(corporate)
p1811
I00
sVcontains(confirmation)
p1812
I00
sVcontains(of)
p1813
I00
sVcontains(current)
p1814
I00
sVcontains(start)
p1815
I00
sVcontains(proof)
p1816
I00
sVcontains(card)
p1817
I00
sVcontains(me)
p1818
I00
sVcontains(certificate)
p1819
I00
sVcontains(using)
p1820
I00
sVcontains(have)
p1821
I00
sVcontains(how)
p1822
I00
sVcontains(in)
p1823
I00
sVcontains(pay)
p1824
I00
sVcontains(ask)
p1825
I00
sVcontains(a)
p1826
I01
sVcontains(on)
p1827
I00
sVcontains(account)
p1828
I00
sVcontains(payment)
p1829
I01
sVcontains(the)
p1830
I00
sVcontains(use)
p1831
I00
sVcontains(Alexa)
p1832
I00
sVcontains(do)
p1833
I00
sVcontains(my)
p1834
I00
sVcontains(checking)
p1835
I00
sVcontains(for)
p1836
I00
sVcontains(transfer)
p1837
I00
sVcontains(starting)
p1838
I00
sVcontains(hotel)
p1839
I00
sVcontains(head)
p1840
I00
sVcontains(tell)
p1841
I00
sVcontains(city)
p1842
I00
sVcontains(I)
p1843
I00
sVcontains(an)
p1844
I00
sVcontains(is)
p1845
I00
sVcontains(doing)
p1846
I00
sVcontains(money)
p1847
I00
sVcontains(alexa)
p1848
I00
sVcontains(citi)
p1849
I00
sVcontains(online)
p1850
I00
sVcontains(give)
p1851
I00
sVcontains(detais)
p1852
I00
sVcontains(credit)
p1853
I00
sVcontains(bank)
p1854
I00
sVcontains(book)
p1855
I00
sVcontains(balance)
p1856
I00
sVcontains(want)
p1857
I00
sVcontains(accomodation)
p1858
I00
sVcontains(i)
p1859
I00
sVcontains(confirm)
p1860
I00
sVcontains(letter)
p1861
I00
sVcontains(initiate)
p1862
I01
sVcontains(need)
p1863
I00
sVcontains(to)
p1864
I00
sVcontains(savings)
p1865
I00
sVcontains(get)
p1866
I00
sVcontains(booking)
p1867
I00
sVcontains(statement)
p1868
I00
sVcontains(what)
p1869
I00
sVcontains(document)
p1870
I00
sVcontains(much)
p1871
I00
sVcontains(make)
p1872
I00
sVcontains(help)
p1873
I00
sVcontains('s)
p1874
I00
sVcontains(transaction)
p1875
I00
sVcontains(details)
p1876
I00
sVcontains(nice)
p1877
I00
sVcontains(amount)
p1878
I00
sVcontains(can)
p1879
I00
sS'Transfer intent'
p1880
tp1881
a((dp1882
Vcontains(corporate)
p1883
I00
sVcontains(confirmation)
p1884
I00
sVcontains(of)
p1885
I00
sVcontains(current)
p1886
I00
sVcontains(start)
p1887
I00
sVcontains(proof)
p1888
I00
sVcontains(card)
p1889
I00
sVcontains(me)
p1890
I00
sVcontains(certificate)
p1891
I00
sVcontains(using)
p1892
I00
sVcontains(have)
p1893
I00
sVcontains(how)
p1894
I00
sVcontains(in)
p1895
I00
sVcontains(pay)
p1896
I00
sVcontains(ask)
p1897
I00
sVcontains(a)
p1898
I01
sVcontains(on)
p1899
I00
sVcontains(account)
p1900
I00
sVcontains(payment)
p1901
I01
sVcontains(the)
p1902
I00
sVcontains(use)
p1903
I00
sVcontains(Alexa)
p1904
I00
sVcontains(do)
p1905
I01
sVcontains(my)
p1906
I00
sVcontains(checking)
p1907
I00
sVcontains(for)
p1908
I00
sVcontains(transfer)
p1909
I01
sVcontains(starting)
p1910
I00
sVcontains(hotel)
p1911
I00
sVcontains(head)
p1912
I00
sVcontains(tell)
p1913
I00
sVcontains(city)
p1914
I00
sVcontains(I)
p1915
I00
sVcontains(an)
p1916
I00
sVcontains(is)
p1917
I00
sVcontains(doing)
p1918
I00
sVcontains(money)
p1919
I00
sVcontains(alexa)
p1920
I00
sVcontains(citi)
p1921
I00
sVcontains(online)
p1922
I00
sVcontains(give)
p1923
I00
sVcontains(detais)
p1924
I00
sVcontains(credit)
p1925
I00
sVcontains(bank)
p1926
I00
sVcontains(book)
p1927
I00
sVcontains(balance)
p1928
I00
sVcontains(want)
p1929
I00
sVcontains(accomodation)
p1930
I00
sVcontains(i)
p1931
I00
sVcontains(confirm)
p1932
I00
sVcontains(letter)
p1933
I00
sVcontains(initiate)
p1934
I00
sVcontains(need)
p1935
I00
sVcontains(to)
p1936
I00
sVcontains(savings)
p1937
I00
sVcontains(get)
p1938
I00
sVcontains(booking)
p1939
I00
sVcontains(statement)
p1940
I00
sVcontains(what)
p1941
I00
sVcontains(document)
p1942
I00
sVcontains(much)
p1943
I00
sVcontains(make)
p1944
I00
sVcontains(help)
p1945
I00
sVcontains('s)
p1946
I00
sVcontains(transaction)
p1947
I00
sVcontains(details)
p1948
I00
sVcontains(nice)
p1949
I00
sVcontains(amount)
p1950
I00
sVcontains(can)
p1951
I00
sS'Transfer intent'
p1952
tp1953
a((dp1954
Vcontains(corporate)
p1955
I00
sVcontains(confirmation)
p1956
I00
sVcontains(of)
p1957
I00
sVcontains(current)
p1958
I00
sVcontains(start)
p1959
I00
sVcontains(proof)
p1960
I00
sVcontains(card)
p1961
I00
sVcontains(me)
p1962
I00
sVcontains(certificate)
p1963
I00
sVcontains(using)
p1964
I00
sVcontains(have)
p1965
I00
sVcontains(how)
p1966
I00
sVcontains(in)
p1967
I00
sVcontains(pay)
p1968
I01
sVcontains(ask)
p1969
I00
sVcontains(a)
p1970
I00
sVcontains(on)
p1971
I00
sVcontains(account)
p1972
I00
sVcontains(payment)
p1973
I00
sVcontains(the)
p1974
I00
sVcontains(use)
p1975
I00
sVcontains(Alexa)
p1976
I00
sVcontains(do)
p1977
I00
sVcontains(my)
p1978
I00
sVcontains(checking)
p1979
I00
sVcontains(for)
p1980
I00
sVcontains(transfer)
p1981
I00
sVcontains(starting)
p1982
I00
sVcontains(hotel)
p1983
I00
sVcontains(head)
p1984
I00
sVcontains(tell)
p1985
I00
sVcontains(city)
p1986
I00
sVcontains(I)
p1987
I00
sVcontains(an)
p1988
I00
sVcontains(is)
p1989
I00
sVcontains(doing)
p1990
I00
sVcontains(money)
p1991
I01
sVcontains(alexa)
p1992
I00
sVcontains(citi)
p1993
I00
sVcontains(online)
p1994
I00
sVcontains(give)
p1995
I00
sVcontains(detais)
p1996
I00
sVcontains(credit)
p1997
I00
sVcontains(bank)
p1998
I00
sVcontains(book)
p1999
I00
sVcontains(balance)
p2000
I00
sVcontains(want)
p2001
I00
sVcontains(accomodation)
p2002
I00
sVcontains(i)
p2003
I00
sVcontains(confirm)
p2004
I00
sVcontains(letter)
p2005
I00
sVcontains(initiate)
p2006
I00
sVcontains(need)
p2007
I00
sVcontains(to)
p2008
I00
sVcontains(savings)
p2009
I00
sVcontains(get)
p2010
I00
sVcontains(booking)
p2011
I00
sVcontains(statement)
p2012
I00
sVcontains(what)
p2013
I00
sVcontains(document)
p2014
I00
sVcontains(much)
p2015
I00
sVcontains(make)
p2016
I00
sVcontains(help)
p2017
I00
sVcontains('s)
p2018
I00
sVcontains(transaction)
p2019
I00
sVcontains(details)
p2020
I00
sVcontains(nice)
p2021
I00
sVcontains(amount)
p2022
I00
sVcontains(can)
p2023
I00
sS'Transfer intent'
p2024
tp2025
a((dp2026
Vcontains(corporate)
p2027
I00
sVcontains(confirmation)
p2028
I00
sVcontains(of)
p2029
I00
sVcontains(current)
p2030
I00
sVcontains(start)
p2031
I00
sVcontains(proof)
p2032
I00
sVcontains(card)
p2033
I00
sVcontains(me)
p2034
I00
sVcontains(certificate)
p2035
I00
sVcontains(using)
p2036
I00
sVcontains(have)
p2037
I00
sVcontains(how)
p2038
I00
sVcontains(in)
p2039
I00
sVcontains(pay)
p2040
I01
sVcontains(ask)
p2041
I00
sVcontains(a)
p2042
I00
sVcontains(on)
p2043
I00
sVcontains(account)
p2044
I00
sVcontains(payment)
p2045
I00
sVcontains(the)
p2046
I00
sVcontains(use)
p2047
I00
sVcontains(Alexa)
p2048
I00
sVcontains(do)
p2049
I00
sVcontains(my)
p2050
I00
sVcontains(checking)
p2051
I00
sVcontains(for)
p2052
I00
sVcontains(transfer)
p2053
I00
sVcontains(starting)
p2054
I00
sVcontains(hotel)
p2055
I00
sVcontains(head)
p2056
I00
sVcontains(tell)
p2057
I00
sVcontains(city)
p2058
I00
sVcontains(I)
p2059
I01
sVcontains(an)
p2060
I00
sVcontains(is)
p2061
I00
sVcontains(doing)
p2062
I00
sVcontains(money)
p2063
I01
sVcontains(alexa)
p2064
I00
sVcontains(citi)
p2065
I00
sVcontains(online)
p2066
I00
sVcontains(give)
p2067
I00
sVcontains(detais)
p2068
I00
sVcontains(credit)
p2069
I00
sVcontains(bank)
p2070
I00
sVcontains(book)
p2071
I00
sVcontains(balance)
p2072
I00
sVcontains(want)
p2073
I01
sVcontains(accomodation)
p2074
I00
sVcontains(i)
p2075
I00
sVcontains(confirm)
p2076
I00
sVcontains(letter)
p2077
I00
sVcontains(initiate)
p2078
I00
sVcontains(need)
p2079
I00
sVcontains(to)
p2080
I01
sVcontains(savings)
p2081
I00
sVcontains(get)
p2082
I00
sVcontains(booking)
p2083
I00
sVcontains(statement)
p2084
I00
sVcontains(what)
p2085
I00
sVcontains(document)
p2086
I00
sVcontains(much)
p2087
I00
sVcontains(make)
p2088
I00
sVcontains(help)
p2089
I00
sVcontains('s)
p2090
I00
sVcontains(transaction)
p2091
I00
sVcontains(details)
p2092
I00
sVcontains(nice)
p2093
I00
sVcontains(amount)
p2094
I00
sVcontains(can)
p2095
I00
sS'Transfer intent'
p2096
tp2097
a((dp2098
Vcontains(corporate)
p2099
I00
sVcontains(confirmation)
p2100
I00
sVcontains(of)
p2101
I00
sVcontains(current)
p2102
I00
sVcontains(start)
p2103
I00
sVcontains(proof)
p2104
I00
sVcontains(card)
p2105
I00
sVcontains(me)
p2106
I00
sVcontains(certificate)
p2107
I00
sVcontains(using)
p2108
I00
sVcontains(have)
p2109
I00
sVcontains(how)
p2110
I00
sVcontains(in)
p2111
I00
sVcontains(pay)
p2112
I00
sVcontains(ask)
p2113
I00
sVcontains(a)
p2114
I00
sVcontains(on)
p2115
I00
sVcontains(account)
p2116
I00
sVcontains(payment)
p2117
I01
sVcontains(the)
p2118
I00
sVcontains(use)
p2119
I00
sVcontains(Alexa)
p2120
I00
sVcontains(do)
p2121
I00
sVcontains(my)
p2122
I00
sVcontains(checking)
p2123
I00
sVcontains(for)
p2124
I00
sVcontains(transfer)
p2125
I00
sVcontains(starting)
p2126
I00
sVcontains(hotel)
p2127
I00
sVcontains(head)
p2128
I00
sVcontains(tell)
p2129
I00
sVcontains(city)
p2130
I00
sVcontains(I)
p2131
I00
sVcontains(an)
p2132
I00
sVcontains(is)
p2133
I00
sVcontains(doing)
p2134
I00
sVcontains(money)
p2135
I01
sVcontains(alexa)
p2136
I00
sVcontains(citi)
p2137
I00
sVcontains(online)
p2138
I00
sVcontains(give)
p2139
I00
sVcontains(detais)
p2140
I00
sVcontains(credit)
p2141
I00
sVcontains(bank)
p2142
I00
sVcontains(book)
p2143
I00
sVcontains(balance)
p2144
I00
sVcontains(want)
p2145
I00
sVcontains(accomodation)
p2146
I00
sVcontains(i)
p2147
I00
sVcontains(confirm)
p2148
I00
sVcontains(letter)
p2149
I00
sVcontains(initiate)
p2150
I00
sVcontains(need)
p2151
I00
sVcontains(to)
p2152
I00
sVcontains(savings)
p2153
I00
sVcontains(get)
p2154
I00
sVcontains(booking)
p2155
I00
sVcontains(statement)
p2156
I00
sVcontains(what)
p2157
I00
sVcontains(document)
p2158
I00
sVcontains(much)
p2159
I00
sVcontains(make)
p2160
I00
sVcontains(help)
p2161
I00
sVcontains('s)
p2162
I00
sVcontains(transaction)
p2163
I00
sVcontains(details)
p2164
I00
sVcontains(nice)
p2165
I00
sVcontains(amount)
p2166
I00
sVcontains(can)
p2167
I00
sS'Transfer intent'
p2168
tp2169
a((dp2170
Vcontains(corporate)
p2171
I00
sVcontains(confirmation)
p2172
I00
sVcontains(of)
p2173
I00
sVcontains(current)
p2174
I00
sVcontains(start)
p2175
I00
sVcontains(proof)
p2176
I00
sVcontains(card)
p2177
I00
sVcontains(me)
p2178
I00
sVcontains(certificate)
p2179
I00
sVcontains(using)
p2180
I00
sVcontains(have)
p2181
I00
sVcontains(how)
p2182
I00
sVcontains(in)
p2183
I00
sVcontains(pay)
p2184
I00
sVcontains(ask)
p2185
I00
sVcontains(a)
p2186
I01
sVcontains(on)
p2187
I00
sVcontains(account)
p2188
I00
sVcontains(payment)
p2189
I01
sVcontains(the)
p2190
I00
sVcontains(use)
p2191
I00
sVcontains(Alexa)
p2192
I00
sVcontains(do)
p2193
I00
sVcontains(my)
p2194
I00
sVcontains(checking)
p2195
I00
sVcontains(for)
p2196
I00
sVcontains(transfer)
p2197
I00
sVcontains(starting)
p2198
I00
sVcontains(hotel)
p2199
I00
sVcontains(head)
p2200
I00
sVcontains(tell)
p2201
I00
sVcontains(city)
p2202
I00
sVcontains(I)
p2203
I00
sVcontains(an)
p2204
I00
sVcontains(is)
p2205
I00
sVcontains(doing)
p2206
I00
sVcontains(money)
p2207
I00
sVcontains(alexa)
p2208
I00
sVcontains(citi)
p2209
I00
sVcontains(online)
p2210
I00
sVcontains(give)
p2211
I00
sVcontains(detais)
p2212
I00
sVcontains(credit)
p2213
I00
sVcontains(bank)
p2214
I00
sVcontains(book)
p2215
I00
sVcontains(balance)
p2216
I00
sVcontains(want)
p2217
I01
sVcontains(accomodation)
p2218
I00
sVcontains(i)
p2219
I01
sVcontains(confirm)
p2220
I00
sVcontains(letter)
p2221
I00
sVcontains(initiate)
p2222
I01
sVcontains(need)
p2223
I00
sVcontains(to)
p2224
I01
sVcontains(savings)
p2225
I00
sVcontains(get)
p2226
I00
sVcontains(booking)
p2227
I00
sVcontains(statement)
p2228
I00
sVcontains(what)
p2229
I00
sVcontains(document)
p2230
I00
sVcontains(much)
p2231
I00
sVcontains(make)
p2232
I00
sVcontains(help)
p2233
I00
sVcontains('s)
p2234
I00
sVcontains(transaction)
p2235
I00
sVcontains(details)
p2236
I00
sVcontains(nice)
p2237
I00
sVcontains(amount)
p2238
I00
sVcontains(can)
p2239
I00
sS'Transfer intent'
p2240
tp2241
a((dp2242
Vcontains(corporate)
p2243
I00
sVcontains(confirmation)
p2244
I00
sVcontains(of)
p2245
I00
sVcontains(current)
p2246
I00
sVcontains(start)
p2247
I00
sVcontains(proof)
p2248
I00
sVcontains(card)
p2249
I00
sVcontains(me)
p2250
I00
sVcontains(certificate)
p2251
I00
sVcontains(using)
p2252
I00
sVcontains(have)
p2253
I00
sVcontains(how)
p2254
I00
sVcontains(in)
p2255
I00
sVcontains(pay)
p2256
I00
sVcontains(ask)
p2257
I00
sVcontains(a)
p2258
I00
sVcontains(on)
p2259
I00
sVcontains(account)
p2260
I00
sVcontains(payment)
p2261
I00
sVcontains(the)
p2262
I00
sVcontains(use)
p2263
I00
sVcontains(Alexa)
p2264
I00
sVcontains(do)
p2265
I00
sVcontains(my)
p2266
I00
sVcontains(checking)
p2267
I00
sVcontains(for)
p2268
I00
sVcontains(transfer)
p2269
I01
sVcontains(starting)
p2270
I00
sVcontains(hotel)
p2271
I00
sVcontains(head)
p2272
I00
sVcontains(tell)
p2273
I00
sVcontains(city)
p2274
I00
sVcontains(I)
p2275
I00
sVcontains(an)
p2276
I00
sVcontains(is)
p2277
I00
sVcontains(doing)
p2278
I00
sVcontains(money)
p2279
I01
sVcontains(alexa)
p2280
I00
sVcontains(citi)
p2281
I00
sVcontains(online)
p2282
I00
sVcontains(give)
p2283
I00
sVcontains(detais)
p2284
I00
sVcontains(credit)
p2285
I00
sVcontains(bank)
p2286
I00
sVcontains(book)
p2287
I00
sVcontains(balance)
p2288
I00
sVcontains(want)
p2289
I00
sVcontains(accomodation)
p2290
I00
sVcontains(i)
p2291
I00
sVcontains(confirm)
p2292
I00
sVcontains(letter)
p2293
I00
sVcontains(initiate)
p2294
I00
sVcontains(need)
p2295
I00
sVcontains(to)
p2296
I00
sVcontains(savings)
p2297
I00
sVcontains(get)
p2298
I00
sVcontains(booking)
p2299
I00
sVcontains(statement)
p2300
I00
sVcontains(what)
p2301
I00
sVcontains(document)
p2302
I00
sVcontains(much)
p2303
I00
sVcontains(make)
p2304
I00
sVcontains(help)
p2305
I00
sVcontains('s)
p2306
I00
sVcontains(transaction)
p2307
I00
sVcontains(details)
p2308
I00
sVcontains(nice)
p2309
I00
sVcontains(amount)
p2310
I00
sVcontains(can)
p2311
I00
sS'Transfer intent'
p2312
tp2313
a((dp2314
Vcontains(corporate)
p2315
I01
sVcontains(confirmation)
p2316
I00
sVcontains(of)
p2317
I00
sVcontains(current)
p2318
I00
sVcontains(start)
p2319
I00
sVcontains(proof)
p2320
I00
sVcontains(card)
p2321
I00
sVcontains(me)
p2322
I00
sVcontains(certificate)
p2323
I00
sVcontains(using)
p2324
I00
sVcontains(have)
p2325
I00
sVcontains(how)
p2326
I00
sVcontains(in)
p2327
I00
sVcontains(pay)
p2328
I00
sVcontains(ask)
p2329
I00
sVcontains(a)
p2330
I00
sVcontains(on)
p2331
I00
sVcontains(account)
p2332
I00
sVcontains(payment)
p2333
I00
sVcontains(the)
p2334
I00
sVcontains(use)
p2335
I00
sVcontains(Alexa)
p2336
I00
sVcontains(do)
p2337
I01
sVcontains(my)
p2338
I00
sVcontains(checking)
p2339
I00
sVcontains(for)
p2340
I00
sVcontains(transfer)
p2341
I01
sVcontains(starting)
p2342
I00
sVcontains(hotel)
p2343
I00
sVcontains(head)
p2344
I00
sVcontains(tell)
p2345
I00
sVcontains(city)
p2346
I00
sVcontains(I)
p2347
I01
sVcontains(an)
p2348
I00
sVcontains(is)
p2349
I00
sVcontains(doing)
p2350
I00
sVcontains(money)
p2351
I00
sVcontains(alexa)
p2352
I00
sVcontains(citi)
p2353
I00
sVcontains(online)
p2354
I00
sVcontains(give)
p2355
I00
sVcontains(detais)
p2356
I00
sVcontains(credit)
p2357
I00
sVcontains(bank)
p2358
I00
sVcontains(book)
p2359
I00
sVcontains(balance)
p2360
I00
sVcontains(want)
p2361
I01
sVcontains(accomodation)
p2362
I00
sVcontains(i)
p2363
I00
sVcontains(confirm)
p2364
I00
sVcontains(letter)
p2365
I00
sVcontains(initiate)
p2366
I00
sVcontains(need)
p2367
I00
sVcontains(to)
p2368
I01
sVcontains(savings)
p2369
I00
sVcontains(get)
p2370
I00
sVcontains(booking)
p2371
I00
sVcontains(statement)
p2372
I00
sVcontains(what)
p2373
I00
sVcontains(document)
p2374
I00
sVcontains(much)
p2375
I00
sVcontains(make)
p2376
I00
sVcontains(help)
p2377
I00
sVcontains('s)
p2378
I00
sVcontains(transaction)
p2379
I00
sVcontains(details)
p2380
I00
sVcontains(nice)
p2381
I00
sVcontains(amount)
p2382
I00
sVcontains(can)
p2383
I00
sS'Transaction intent'
p2384
tp2385
a((dp2386
Vcontains(corporate)
p2387
I00
sVcontains(confirmation)
p2388
I00
sVcontains(of)
p2389
I00
sVcontains(current)
p2390
I00
sVcontains(start)
p2391
I00
sVcontains(proof)
p2392
I00
sVcontains(card)
p2393
I00
sVcontains(me)
p2394
I00
sVcontains(certificate)
p2395
I00
sVcontains(using)
p2396
I00
sVcontains(have)
p2397
I00
sVcontains(how)
p2398
I00
sVcontains(in)
p2399
I00
sVcontains(pay)
p2400
I00
sVcontains(ask)
p2401
I00
sVcontains(a)
p2402
I00
sVcontains(on)
p2403
I00
sVcontains(account)
p2404
I00
sVcontains(payment)
p2405
I00
sVcontains(the)
p2406
I00
sVcontains(use)
p2407
I00
sVcontains(Alexa)
p2408
I00
sVcontains(do)
p2409
I01
sVcontains(my)
p2410
I00
sVcontains(checking)
p2411
I00
sVcontains(for)
p2412
I00
sVcontains(transfer)
p2413
I00
sVcontains(starting)
p2414
I00
sVcontains(hotel)
p2415
I00
sVcontains(head)
p2416
I00
sVcontains(tell)
p2417
I00
sVcontains(city)
p2418
I00
sVcontains(I)
p2419
I01
sVcontains(an)
p2420
I00
sVcontains(is)
p2421
I00
sVcontains(doing)
p2422
I00
sVcontains(money)
p2423
I00
sVcontains(alexa)
p2424
I00
sVcontains(citi)
p2425
I00
sVcontains(online)
p2426
I00
sVcontains(give)
p2427
I00
sVcontains(detais)
p2428
I00
sVcontains(credit)
p2429
I00
sVcontains(bank)
p2430
I00
sVcontains(book)
p2431
I00
sVcontains(balance)
p2432
I00
sVcontains(want)
p2433
I01
sVcontains(accomodation)
p2434
I00
sVcontains(i)
p2435
I00
sVcontains(confirm)
p2436
I00
sVcontains(letter)
p2437
I00
sVcontains(initiate)
p2438
I00
sVcontains(need)
p2439
I00
sVcontains(to)
p2440
I01
sVcontains(savings)
p2441
I00
sVcontains(get)
p2442
I00
sVcontains(booking)
p2443
I00
sVcontains(statement)
p2444
I00
sVcontains(what)
p2445
I00
sVcontains(document)
p2446
I00
sVcontains(much)
p2447
I00
sVcontains(make)
p2448
I00
sVcontains(help)
p2449
I00
sVcontains('s)
p2450
I00
sVcontains(transaction)
p2451
I01
sVcontains(details)
p2452
I00
sVcontains(nice)
p2453
I00
sVcontains(amount)
p2454
I00
sVcontains(can)
p2455
I00
sS'Transaction intent'
p2456
tp2457
a((dp2458
Vcontains(corporate)
p2459
I00
sVcontains(confirmation)
p2460
I00
sVcontains(of)
p2461
I00
sVcontains(current)
p2462
I00
sVcontains(start)
p2463
I00
sVcontains(proof)
p2464
I00
sVcontains(card)
p2465
I00
sVcontains(me)
p2466
I00
sVcontains(certificate)
p2467
I00
sVcontains(using)
p2468
I00
sVcontains(have)
p2469
I00
sVcontains(how)
p2470
I00
sVcontains(in)
p2471
I00
sVcontains(pay)
p2472
I00
sVcontains(ask)
p2473
I00
sVcontains(a)
p2474
I01
sVcontains(on)
p2475
I00
sVcontains(account)
p2476
I00
sVcontains(payment)
p2477
I00
sVcontains(the)
p2478
I00
sVcontains(use)
p2479
I00
sVcontains(Alexa)
p2480
I00
sVcontains(do)
p2481
I00
sVcontains(my)
p2482
I00
sVcontains(checking)
p2483
I00
sVcontains(for)
p2484
I00
sVcontains(transfer)
p2485
I00
sVcontains(starting)
p2486
I00
sVcontains(hotel)
p2487
I00
sVcontains(head)
p2488
I00
sVcontains(tell)
p2489
I00
sVcontains(city)
p2490
I00
sVcontains(I)
p2491
I00
sVcontains(an)
p2492
I00
sVcontains(is)
p2493
I00
sVcontains(doing)
p2494
I00
sVcontains(money)
p2495
I00
sVcontains(alexa)
p2496
I00
sVcontains(citi)
p2497
I00
sVcontains(online)
p2498
I00
sVcontains(give)
p2499
I00
sVcontains(detais)
p2500
I00
sVcontains(credit)
p2501
I00
sVcontains(bank)
p2502
I00
sVcontains(book)
p2503
I00
sVcontains(balance)
p2504
I00
sVcontains(want)
p2505
I00
sVcontains(accomodation)
p2506
I00
sVcontains(i)
p2507
I00
sVcontains(confirm)
p2508
I00
sVcontains(letter)
p2509
I00
sVcontains(initiate)
p2510
I00
sVcontains(need)
p2511
I00
sVcontains(to)
p2512
I00
sVcontains(savings)
p2513
I00
sVcontains(get)
p2514
I00
sVcontains(booking)
p2515
I00
sVcontains(statement)
p2516
I00
sVcontains(what)
p2517
I00
sVcontains(document)
p2518
I00
sVcontains(much)
p2519
I00
sVcontains(make)
p2520
I01
sVcontains(help)
p2521
I00
sVcontains('s)
p2522
I00
sVcontains(transaction)
p2523
I01
sVcontains(details)
p2524
I00
sVcontains(nice)
p2525
I00
sVcontains(amount)
p2526
I00
sVcontains(can)
p2527
I00
sS'Transaction intent'
p2528
tp2529
a((dp2530
Vcontains(corporate)
p2531
I00
sVcontains(confirmation)
p2532
I00
sVcontains(of)
p2533
I00
sVcontains(current)
p2534
I00
sVcontains(start)
p2535
I00
sVcontains(proof)
p2536
I00
sVcontains(card)
p2537
I00
sVcontains(me)
p2538
I01
sVcontains(certificate)
p2539
I00
sVcontains(using)
p2540
I00
sVcontains(have)
p2541
I00
sVcontains(how)
p2542
I00
sVcontains(in)
p2543
I00
sVcontains(pay)
p2544
I00
sVcontains(ask)
p2545
I00
sVcontains(a)
p2546
I01
sVcontains(on)
p2547
I00
sVcontains(account)
p2548
I00
sVcontains(payment)
p2549
I00
sVcontains(the)
p2550
I00
sVcontains(use)
p2551
I00
sVcontains(Alexa)
p2552
I00
sVcontains(do)
p2553
I01
sVcontains(my)
p2554
I00
sVcontains(checking)
p2555
I00
sVcontains(for)
p2556
I01
sVcontains(transfer)
p2557
I00
sVcontains(starting)
p2558
I00
sVcontains(hotel)
p2559
I00
sVcontains(head)
p2560
I00
sVcontains(tell)
p2561
I00
sVcontains(city)
p2562
I00
sVcontains(I)
p2563
I00
sVcontains(an)
p2564
I00
sVcontains(is)
p2565
I00
sVcontains(doing)
p2566
I00
sVcontains(money)
p2567
I00
sVcontains(alexa)
p2568
I00
sVcontains(citi)
p2569
I00
sVcontains(online)
p2570
I00
sVcontains(give)
p2571
I00
sVcontains(detais)
p2572
I00
sVcontains(credit)
p2573
I00
sVcontains(bank)
p2574
I00
sVcontains(book)
p2575
I00
sVcontains(balance)
p2576
I00
sVcontains(want)
p2577
I00
sVcontains(accomodation)
p2578
I00
sVcontains(i)
p2579
I00
sVcontains(confirm)
p2580
I00
sVcontains(letter)
p2581
I00
sVcontains(initiate)
p2582
I00
sVcontains(need)
p2583
I00
sVcontains(to)
p2584
I00
sVcontains(savings)
p2585
I00
sVcontains(get)
p2586
I00
sVcontains(booking)
p2587
I00
sVcontains(statement)
p2588
I00
sVcontains(what)
p2589
I00
sVcontains(document)
p2590
I00
sVcontains(much)
p2591
I00
sVcontains(make)
p2592
I00
sVcontains(help)
p2593
I00
sVcontains('s)
p2594
I00
sVcontains(transaction)
p2595
I01
sVcontains(details)
p2596
I00
sVcontains(nice)
p2597
I00
sVcontains(amount)
p2598
I00
sVcontains(can)
p2599
I00
sS'TransactionIntent'
p2600
tp2601
a((dp2602
Vcontains(corporate)
p2603
I01
sVcontains(confirmation)
p2604
I00
sVcontains(of)
p2605
I00
sVcontains(current)
p2606
I00
sVcontains(start)
p2607
I00
sVcontains(proof)
p2608
I00
sVcontains(card)
p2609
I00
sVcontains(me)
p2610
I00
sVcontains(certificate)
p2611
I00
sVcontains(using)
p2612
I00
sVcontains(have)
p2613
I00
sVcontains(how)
p2614
I00
sVcontains(in)
p2615
I00
sVcontains(pay)
p2616
I00
sVcontains(ask)
p2617
I00
sVcontains(a)
p2618
I00
sVcontains(on)
p2619
I00
sVcontains(account)
p2620
I00
sVcontains(payment)
p2621
I00
sVcontains(the)
p2622
I00
sVcontains(use)
p2623
I00
sVcontains(Alexa)
p2624
I00
sVcontains(do)
p2625
I01
sVcontains(my)
p2626
I00
sVcontains(checking)
p2627
I00
sVcontains(for)
p2628
I00
sVcontains(transfer)
p2629
I00
sVcontains(starting)
p2630
I00
sVcontains(hotel)
p2631
I00
sVcontains(head)
p2632
I00
sVcontains(tell)
p2633
I00
sVcontains(city)
p2634
I00
sVcontains(I)
p2635
I01
sVcontains(an)
p2636
I00
sVcontains(is)
p2637
I00
sVcontains(doing)
p2638
I00
sVcontains(money)
p2639
I00
sVcontains(alexa)
p2640
I00
sVcontains(citi)
p2641
I00
sVcontains(online)
p2642
I00
sVcontains(give)
p2643
I00
sVcontains(detais)
p2644
I00
sVcontains(credit)
p2645
I00
sVcontains(bank)
p2646
I00
sVcontains(book)
p2647
I00
sVcontains(balance)
p2648
I00
sVcontains(want)
p2649
I01
sVcontains(accomodation)
p2650
I00
sVcontains(i)
p2651
I00
sVcontains(confirm)
p2652
I00
sVcontains(letter)
p2653
I00
sVcontains(initiate)
p2654
I00
sVcontains(need)
p2655
I00
sVcontains(to)
p2656
I01
sVcontains(savings)
p2657
I00
sVcontains(get)
p2658
I00
sVcontains(booking)
p2659
I00
sVcontains(statement)
p2660
I00
sVcontains(what)
p2661
I00
sVcontains(document)
p2662
I00
sVcontains(much)
p2663
I00
sVcontains(make)
p2664
I00
sVcontains(help)
p2665
I00
sVcontains('s)
p2666
I00
sVcontains(transaction)
p2667
I01
sVcontains(details)
p2668
I00
sVcontains(nice)
p2669
I00
sVcontains(amount)
p2670
I00
sVcontains(can)
p2671
I00
sS'Transaction intent'
p2672
tp2673
a((dp2674
Vcontains(corporate)
p2675
I01
sVcontains(confirmation)
p2676
I00
sVcontains(of)
p2677
I00
sVcontains(current)
p2678
I00
sVcontains(start)
p2679
I00
sVcontains(proof)
p2680
I00
sVcontains(card)
p2681
I00
sVcontains(me)
p2682
I00
sVcontains(certificate)
p2683
I00
sVcontains(using)
p2684
I00
sVcontains(have)
p2685
I00
sVcontains(how)
p2686
I00
sVcontains(in)
p2687
I00
sVcontains(pay)
p2688
I00
sVcontains(ask)
p2689
I00
sVcontains(a)
p2690
I00
sVcontains(on)
p2691
I00
sVcontains(account)
p2692
I00
sVcontains(payment)
p2693
I00
sVcontains(the)
p2694
I00
sVcontains(use)
p2695
I00
sVcontains(Alexa)
p2696
I00
sVcontains(do)
p2697
I00
sVcontains(my)
p2698
I00
sVcontains(checking)
p2699
I00
sVcontains(for)
p2700
I00
sVcontains(transfer)
p2701
I00
sVcontains(starting)
p2702
I00
sVcontains(hotel)
p2703
I00
sVcontains(head)
p2704
I00
sVcontains(tell)
p2705
I00
sVcontains(city)
p2706
I00
sVcontains(I)
p2707
I00
sVcontains(an)
p2708
I00
sVcontains(is)
p2709
I00
sVcontains(doing)
p2710
I00
sVcontains(money)
p2711
I00
sVcontains(alexa)
p2712
I00
sVcontains(citi)
p2713
I00
sVcontains(online)
p2714
I00
sVcontains(give)
p2715
I00
sVcontains(detais)
p2716
I00
sVcontains(credit)
p2717
I00
sVcontains(bank)
p2718
I00
sVcontains(book)
p2719
I00
sVcontains(balance)
p2720
I00
sVcontains(want)
p2721
I00
sVcontains(accomodation)
p2722
I00
sVcontains(i)
p2723
I00
sVcontains(confirm)
p2724
I00
sVcontains(letter)
p2725
I00
sVcontains(initiate)
p2726
I00
sVcontains(need)
p2727
I00
sVcontains(to)
p2728
I00
sVcontains(savings)
p2729
I00
sVcontains(get)
p2730
I00
sVcontains(booking)
p2731
I00
sVcontains(statement)
p2732
I00
sVcontains(what)
p2733
I00
sVcontains(document)
p2734
I00
sVcontains(much)
p2735
I00
sVcontains(make)
p2736
I00
sVcontains(help)
p2737
I00
sVcontains('s)
p2738
I00
sVcontains(transaction)
p2739
I01
sVcontains(details)
p2740
I00
sVcontains(nice)
p2741
I00
sVcontains(amount)
p2742
I00
sVcontains(can)
p2743
I00
sS'Transaction intent'
p2744
tp2745
a((dp2746
Vcontains(corporate)
p2747
I01
sVcontains(confirmation)
p2748
I00
sVcontains(of)
p2749
I00
sVcontains(current)
p2750
I00
sVcontains(start)
p2751
I00
sVcontains(proof)
p2752
I00
sVcontains(card)
p2753
I00
sVcontains(me)
p2754
I00
sVcontains(certificate)
p2755
I00
sVcontains(using)
p2756
I00
sVcontains(have)
p2757
I00
sVcontains(how)
p2758
I00
sVcontains(in)
p2759
I00
sVcontains(pay)
p2760
I00
sVcontains(ask)
p2761
I00
sVcontains(a)
p2762
I01
sVcontains(on)
p2763
I00
sVcontains(account)
p2764
I00
sVcontains(payment)
p2765
I00
sVcontains(the)
p2766
I00
sVcontains(use)
p2767
I00
sVcontains(Alexa)
p2768
I00
sVcontains(do)
p2769
I00
sVcontains(my)
p2770
I00
sVcontains(checking)
p2771
I00
sVcontains(for)
p2772
I00
sVcontains(transfer)
p2773
I00
sVcontains(starting)
p2774
I00
sVcontains(hotel)
p2775
I00
sVcontains(head)
p2776
I00
sVcontains(tell)
p2777
I00
sVcontains(city)
p2778
I00
sVcontains(I)
p2779
I00
sVcontains(an)
p2780
I00
sVcontains(is)
p2781
I00
sVcontains(doing)
p2782
I00
sVcontains(money)
p2783
I00
sVcontains(alexa)
p2784
I00
sVcontains(citi)
p2785
I00
sVcontains(online)
p2786
I00
sVcontains(give)
p2787
I00
sVcontains(detais)
p2788
I00
sVcontains(credit)
p2789
I00
sVcontains(bank)
p2790
I00
sVcontains(book)
p2791
I00
sVcontains(balance)
p2792
I00
sVcontains(want)
p2793
I00
sVcontains(accomodation)
p2794
I00
sVcontains(i)
p2795
I00
sVcontains(confirm)
p2796
I00
sVcontains(letter)
p2797
I00
sVcontains(initiate)
p2798
I00
sVcontains(need)
p2799
I00
sVcontains(to)
p2800
I00
sVcontains(savings)
p2801
I00
sVcontains(get)
p2802
I00
sVcontains(booking)
p2803
I00
sVcontains(statement)
p2804
I00
sVcontains(what)
p2805
I00
sVcontains(document)
p2806
I00
sVcontains(much)
p2807
I00
sVcontains(make)
p2808
I01
sVcontains(help)
p2809
I00
sVcontains('s)
p2810
I00
sVcontains(transaction)
p2811
I01
sVcontains(details)
p2812
I00
sVcontains(nice)
p2813
I00
sVcontains(amount)
p2814
I00
sVcontains(can)
p2815
I00
sS'Transaction intent'
p2816
tp2817
a((dp2818
Vcontains(corporate)
p2819
I01
sVcontains(confirmation)
p2820
I00
sVcontains(of)
p2821
I00
sVcontains(current)
p2822
I00
sVcontains(start)
p2823
I00
sVcontains(proof)
p2824
I00
sVcontains(card)
p2825
I00
sVcontains(me)
p2826
I00
sVcontains(certificate)
p2827
I00
sVcontains(using)
p2828
I00
sVcontains(have)
p2829
I00
sVcontains(how)
p2830
I00
sVcontains(in)
p2831
I00
sVcontains(pay)
p2832
I00
sVcontains(ask)
p2833
I00
sVcontains(a)
p2834
I00
sVcontains(on)
p2835
I00
sVcontains(account)
p2836
I00
sVcontains(payment)
p2837
I00
sVcontains(the)
p2838
I00
sVcontains(use)
p2839
I00
sVcontains(Alexa)
p2840
I00
sVcontains(do)
p2841
I00
sVcontains(my)
p2842
I00
sVcontains(checking)
p2843
I00
sVcontains(for)
p2844
I00
sVcontains(transfer)
p2845
I00
sVcontains(starting)
p2846
I00
sVcontains(hotel)
p2847
I00
sVcontains(head)
p2848
I00
sVcontains(tell)
p2849
I00
sVcontains(city)
p2850
I00
sVcontains(I)
p2851
I00
sVcontains(an)
p2852
I00
sVcontains(is)
p2853
I00
sVcontains(doing)
p2854
I00
sVcontains(money)
p2855
I00
sVcontains(alexa)
p2856
I00
sVcontains(citi)
p2857
I00
sVcontains(online)
p2858
I00
sVcontains(give)
p2859
I00
sVcontains(detais)
p2860
I00
sVcontains(credit)
p2861
I00
sVcontains(bank)
p2862
I00
sVcontains(book)
p2863
I00
sVcontains(balance)
p2864
I00
sVcontains(want)
p2865
I00
sVcontains(accomodation)
p2866
I00
sVcontains(i)
p2867
I00
sVcontains(confirm)
p2868
I00
sVcontains(letter)
p2869
I00
sVcontains(initiate)
p2870
I01
sVcontains(need)
p2871
I00
sVcontains(to)
p2872
I00
sVcontains(savings)
p2873
I00
sVcontains(get)
p2874
I00
sVcontains(booking)
p2875
I00
sVcontains(statement)
p2876
I00
sVcontains(what)
p2877
I00
sVcontains(document)
p2878
I00
sVcontains(much)
p2879
I00
sVcontains(make)
p2880
I00
sVcontains(help)
p2881
I00
sVcontains('s)
p2882
I00
sVcontains(transaction)
p2883
I01
sVcontains(details)
p2884
I00
sVcontains(nice)
p2885
I00
sVcontains(amount)
p2886
I00
sVcontains(can)
p2887
I00
sS'Transaction intent'
p2888
tp2889
a((dp2890
Vcontains(corporate)
p2891
I00
sVcontains(confirmation)
p2892
I00
sVcontains(of)
p2893
I00
sVcontains(current)
p2894
I00
sVcontains(start)
p2895
I00
sVcontains(proof)
p2896
I00
sVcontains(card)
p2897
I00
sVcontains(me)
p2898
I00
sVcontains(certificate)
p2899
I00
sVcontains(using)
p2900
I00
sVcontains(have)
p2901
I00
sVcontains(how)
p2902
I00
sVcontains(in)
p2903
I00
sVcontains(pay)
p2904
I00
sVcontains(ask)
p2905
I00
sVcontains(a)
p2906
I00
sVcontains(on)
p2907
I00
sVcontains(account)
p2908
I00
sVcontains(payment)
p2909
I00
sVcontains(the)
p2910
I00
sVcontains(use)
p2911
I00
sVcontains(Alexa)
p2912
I00
sVcontains(do)
p2913
I00
sVcontains(my)
p2914
I00
sVcontains(checking)
p2915
I00
sVcontains(for)
p2916
I00
sVcontains(transfer)
p2917
I00
sVcontains(starting)
p2918
I00
sVcontains(hotel)
p2919
I01
sVcontains(head)
p2920
I00
sVcontains(tell)
p2921
I00
sVcontains(city)
p2922
I00
sVcontains(I)
p2923
I00
sVcontains(an)
p2924
I00
sVcontains(is)
p2925
I00
sVcontains(doing)
p2926
I00
sVcontains(money)
p2927
I00
sVcontains(alexa)
p2928
I00
sVcontains(citi)
p2929
I00
sVcontains(online)
p2930
I00
sVcontains(give)
p2931
I00
sVcontains(detais)
p2932
I00
sVcontains(credit)
p2933
I00
sVcontains(bank)
p2934
I00
sVcontains(book)
p2935
I01
sVcontains(balance)
p2936
I00
sVcontains(want)
p2937
I00
sVcontains(accomodation)
p2938
I00
sVcontains(i)
p2939
I00
sVcontains(confirm)
p2940
I00
sVcontains(letter)
p2941
I00
sVcontains(initiate)
p2942
I00
sVcontains(need)
p2943
I00
sVcontains(to)
p2944
I00
sVcontains(savings)
p2945
I00
sVcontains(get)
p2946
I00
sVcontains(booking)
p2947
I00
sVcontains(statement)
p2948
I00
sVcontains(what)
p2949
I00
sVcontains(document)
p2950
I00
sVcontains(much)
p2951
I00
sVcontains(make)
p2952
I00
sVcontains(help)
p2953
I00
sVcontains('s)
p2954
I00
sVcontains(transaction)
p2955
I00
sVcontains(details)
p2956
I00
sVcontains(nice)
p2957
I00
sVcontains(amount)
p2958
I00
sVcontains(can)
p2959
I00
sS'Book hotel'
p2960
tp2961
a((dp2962
Vcontains(corporate)
p2963
I00
sVcontains(confirmation)
p2964
I00
sVcontains(of)
p2965
I00
sVcontains(current)
p2966
I00
sVcontains(start)
p2967
I00
sVcontains(proof)
p2968
I00
sVcontains(card)
p2969
I00
sVcontains(me)
p2970
I00
sVcontains(certificate)
p2971
I00
sVcontains(using)
p2972
I00
sVcontains(have)
p2973
I00
sVcontains(how)
p2974
I00
sVcontains(in)
p2975
I00
sVcontains(pay)
p2976
I00
sVcontains(ask)
p2977
I00
sVcontains(a)
p2978
I01
sVcontains(on)
p2979
I00
sVcontains(account)
p2980
I00
sVcontains(payment)
p2981
I00
sVcontains(the)
p2982
I00
sVcontains(use)
p2983
I00
sVcontains(Alexa)
p2984
I00
sVcontains(do)
p2985
I00
sVcontains(my)
p2986
I00
sVcontains(checking)
p2987
I00
sVcontains(for)
p2988
I00
sVcontains(transfer)
p2989
I00
sVcontains(starting)
p2990
I00
sVcontains(hotel)
p2991
I01
sVcontains(head)
p2992
I00
sVcontains(tell)
p2993
I00
sVcontains(city)
p2994
I00
sVcontains(I)
p2995
I00
sVcontains(an)
p2996
I00
sVcontains(is)
p2997
I00
sVcontains(doing)
p2998
I00
sVcontains(money)
p2999
I00
sVcontains(alexa)
p3000
I00
sVcontains(citi)
p3001
I00
sVcontains(online)
p3002
I00
sVcontains(give)
p3003
I00
sVcontains(detais)
p3004
I00
sVcontains(credit)
p3005
I00
sVcontains(bank)
p3006
I00
sVcontains(book)
p3007
I00
sVcontains(balance)
p3008
I00
sVcontains(want)
p3009
I01
sVcontains(accomodation)
p3010
I00
sVcontains(i)
p3011
I01
sVcontains(confirm)
p3012
I00
sVcontains(letter)
p3013
I00
sVcontains(initiate)
p3014
I00
sVcontains(need)
p3015
I00
sVcontains(to)
p3016
I01
sVcontains(savings)
p3017
I00
sVcontains(get)
p3018
I00
sVcontains(booking)
p3019
I01
sVcontains(statement)
p3020
I00
sVcontains(what)
p3021
I00
sVcontains(document)
p3022
I00
sVcontains(much)
p3023
I00
sVcontains(make)
p3024
I01
sVcontains(help)
p3025
I00
sVcontains('s)
p3026
I00
sVcontains(transaction)
p3027
I00
sVcontains(details)
p3028
I00
sVcontains(nice)
p3029
I00
sVcontains(amount)
p3030
I00
sVcontains(can)
p3031
I00
sS'Book hotel'
p3032
tp3033
a((dp3034
Vcontains(corporate)
p3035
I00
sVcontains(confirmation)
p3036
I00
sVcontains(of)
p3037
I00
sVcontains(current)
p3038
I00
sVcontains(start)
p3039
I00
sVcontains(proof)
p3040
I00
sVcontains(card)
p3041
I00
sVcontains(me)
p3042
I01
sVcontains(certificate)
p3043
I00
sVcontains(using)
p3044
I00
sVcontains(have)
p3045
I00
sVcontains(how)
p3046
I00
sVcontains(in)
p3047
I00
sVcontains(pay)
p3048
I00
sVcontains(ask)
p3049
I00
sVcontains(a)
p3050
I01
sVcontains(on)
p3051
I00
sVcontains(account)
p3052
I00
sVcontains(payment)
p3053
I00
sVcontains(the)
p3054
I00
sVcontains(use)
p3055
I00
sVcontains(Alexa)
p3056
I00
sVcontains(do)
p3057
I00
sVcontains(my)
p3058
I00
sVcontains(checking)
p3059
I00
sVcontains(for)
p3060
I01
sVcontains(transfer)
p3061
I00
sVcontains(starting)
p3062
I00
sVcontains(hotel)
p3063
I01
sVcontains(head)
p3064
I00
sVcontains(tell)
p3065
I00
sVcontains(city)
p3066
I00
sVcontains(I)
p3067
I00
sVcontains(an)
p3068
I00
sVcontains(is)
p3069
I00
sVcontains(doing)
p3070
I00
sVcontains(money)
p3071
I00
sVcontains(alexa)
p3072
I00
sVcontains(citi)
p3073
I00
sVcontains(online)
p3074
I00
sVcontains(give)
p3075
I00
sVcontains(detais)
p3076
I00
sVcontains(credit)
p3077
I00
sVcontains(bank)
p3078
I00
sVcontains(book)
p3079
I01
sVcontains(balance)
p3080
I00
sVcontains(want)
p3081
I00
sVcontains(accomodation)
p3082
I00
sVcontains(i)
p3083
I00
sVcontains(confirm)
p3084
I00
sVcontains(letter)
p3085
I00
sVcontains(initiate)
p3086
I00
sVcontains(need)
p3087
I00
sVcontains(to)
p3088
I00
sVcontains(savings)
p3089
I00
sVcontains(get)
p3090
I00
sVcontains(booking)
p3091
I00
sVcontains(statement)
p3092
I00
sVcontains(what)
p3093
I00
sVcontains(document)
p3094
I00
sVcontains(much)
p3095
I00
sVcontains(make)
p3096
I00
sVcontains(help)
p3097
I00
sVcontains('s)
p3098
I00
sVcontains(transaction)
p3099
I00
sVcontains(details)
p3100
I00
sVcontains(nice)
p3101
I00
sVcontains(amount)
p3102
I00
sVcontains(can)
p3103
I00
sS'Book hotel'
p3104
tp3105
a((dp3106
Vcontains(corporate)
p3107
I00
sVcontains(confirmation)
p3108
I00
sVcontains(of)
p3109
I00
sVcontains(current)
p3110
I00
sVcontains(start)
p3111
I00
sVcontains(proof)
p3112
I00
sVcontains(card)
p3113
I00
sVcontains(me)
p3114
I00
sVcontains(certificate)
p3115
I00
sVcontains(using)
p3116
I00
sVcontains(have)
p3117
I00
sVcontains(how)
p3118
I00
sVcontains(in)
p3119
I00
sVcontains(pay)
p3120
I00
sVcontains(ask)
p3121
I00
sVcontains(a)
p3122
I00
sVcontains(on)
p3123
I00
sVcontains(account)
p3124
I00
sVcontains(payment)
p3125
I00
sVcontains(the)
p3126
I00
sVcontains(use)
p3127
I00
sVcontains(Alexa)
p3128
I00
sVcontains(do)
p3129
I00
sVcontains(my)
p3130
I00
sVcontains(checking)
p3131
I00
sVcontains(for)
p3132
I00
sVcontains(transfer)
p3133
I00
sVcontains(starting)
p3134
I00
sVcontains(hotel)
p3135
I00
sVcontains(head)
p3136
I00
sVcontains(tell)
p3137
I00
sVcontains(city)
p3138
I00
sVcontains(I)
p3139
I00
sVcontains(an)
p3140
I00
sVcontains(is)
p3141
I00
sVcontains(doing)
p3142
I00
sVcontains(money)
p3143
I00
sVcontains(alexa)
p3144
I00
sVcontains(citi)
p3145
I00
sVcontains(online)
p3146
I00
sVcontains(give)
p3147
I00
sVcontains(detais)
p3148
I00
sVcontains(credit)
p3149
I00
sVcontains(bank)
p3150
I00
sVcontains(book)
p3151
I01
sVcontains(balance)
p3152
I00
sVcontains(want)
p3153
I00
sVcontains(accomodation)
p3154
I01
sVcontains(i)
p3155
I00
sVcontains(confirm)
p3156
I00
sVcontains(letter)
p3157
I00
sVcontains(initiate)
p3158
I00
sVcontains(need)
p3159
I00
sVcontains(to)
p3160
I00
sVcontains(savings)
p3161
I00
sVcontains(get)
p3162
I00
sVcontains(booking)
p3163
I00
sVcontains(statement)
p3164
I00
sVcontains(what)
p3165
I00
sVcontains(document)
p3166
I00
sVcontains(much)
p3167
I00
sVcontains(make)
p3168
I00
sVcontains(help)
p3169
I00
sVcontains('s)
p3170
I00
sVcontains(transaction)
p3171
I00
sVcontains(details)
p3172
I00
sVcontains(nice)
p3173
I00
sVcontains(amount)
p3174
I00
sVcontains(can)
p3175
I00
sS'Book hotel'
p3176
tp3177
a((dp3178
Vcontains(corporate)
p3179
I00
sVcontains(confirmation)
p3180
I00
sVcontains(of)
p3181
I00
sVcontains(current)
p3182
I00
sVcontains(start)
p3183
I00
sVcontains(proof)
p3184
I00
sVcontains(card)
p3185
I00
sVcontains(me)
p3186
I01
sVcontains(certificate)
p3187
I00
sVcontains(using)
p3188
I00
sVcontains(have)
p3189
I00
sVcontains(how)
p3190
I00
sVcontains(in)
p3191
I01
sVcontains(pay)
p3192
I00
sVcontains(ask)
p3193
I00
sVcontains(a)
p3194
I00
sVcontains(on)
p3195
I00
sVcontains(account)
p3196
I00
sVcontains(payment)
p3197
I00
sVcontains(the)
p3198
I00
sVcontains(use)
p3199
I00
sVcontains(Alexa)
p3200
I00
sVcontains(do)
p3201
I00
sVcontains(my)
p3202
I00
sVcontains(checking)
p3203
I00
sVcontains(for)
p3204
I00
sVcontains(transfer)
p3205
I00
sVcontains(starting)
p3206
I00
sVcontains(hotel)
p3207
I01
sVcontains(head)
p3208
I00
sVcontains(tell)
p3209
I00
sVcontains(city)
p3210
I00
sVcontains(I)
p3211
I00
sVcontains(an)
p3212
I00
sVcontains(is)
p3213
I00
sVcontains(doing)
p3214
I00
sVcontains(money)
p3215
I00
sVcontains(alexa)
p3216
I00
sVcontains(citi)
p3217
I00
sVcontains(online)
p3218
I00
sVcontains(give)
p3219
I00
sVcontains(detais)
p3220
I00
sVcontains(credit)
p3221
I00
sVcontains(bank)
p3222
I00
sVcontains(book)
p3223
I00
sVcontains(balance)
p3224
I00
sVcontains(want)
p3225
I00
sVcontains(accomodation)
p3226
I00
sVcontains(i)
p3227
I00
sVcontains(confirm)
p3228
I00
sVcontains(letter)
p3229
I00
sVcontains(initiate)
p3230
I00
sVcontains(need)
p3231
I00
sVcontains(to)
p3232
I00
sVcontains(savings)
p3233
I00
sVcontains(get)
p3234
I00
sVcontains(booking)
p3235
I01
sVcontains(statement)
p3236
I00
sVcontains(what)
p3237
I00
sVcontains(document)
p3238
I00
sVcontains(much)
p3239
I00
sVcontains(make)
p3240
I00
sVcontains(help)
p3241
I01
sVcontains('s)
p3242
I00
sVcontains(transaction)
p3243
I00
sVcontains(details)
p3244
I00
sVcontains(nice)
p3245
I00
sVcontains(amount)
p3246
I00
sVcontains(can)
p3247
I00
sS'Book hotel'
p3248
tp3249
a((dp3250
Vcontains(corporate)
p3251
I00
sVcontains(confirmation)
p3252
I00
sVcontains(of)
p3253
I00
sVcontains(current)
p3254
I00
sVcontains(start)
p3255
I00
sVcontains(proof)
p3256
I00
sVcontains(card)
p3257
I00
sVcontains(me)
p3258
I00
sVcontains(certificate)
p3259
I00
sVcontains(using)
p3260
I00
sVcontains(have)
p3261
I00
sVcontains(how)
p3262
I00
sVcontains(in)
p3263
I00
sVcontains(pay)
p3264
I00
sVcontains(ask)
p3265
I00
sVcontains(a)
p3266
I01
sVcontains(on)
p3267
I00
sVcontains(account)
p3268
I00
sVcontains(payment)
p3269
I00
sVcontains(the)
p3270
I00
sVcontains(use)
p3271
I00
sVcontains(Alexa)
p3272
I00
sVcontains(do)
p3273
I00
sVcontains(my)
p3274
I00
sVcontains(checking)
p3275
I00
sVcontains(for)
p3276
I00
sVcontains(transfer)
p3277
I00
sVcontains(starting)
p3278
I00
sVcontains(hotel)
p3279
I01
sVcontains(head)
p3280
I00
sVcontains(tell)
p3281
I00
sVcontains(city)
p3282
I00
sVcontains(I)
p3283
I00
sVcontains(an)
p3284
I00
sVcontains(is)
p3285
I00
sVcontains(doing)
p3286
I00
sVcontains(money)
p3287
I00
sVcontains(alexa)
p3288
I00
sVcontains(citi)
p3289
I00
sVcontains(online)
p3290
I00
sVcontains(give)
p3291
I00
sVcontains(detais)
p3292
I00
sVcontains(credit)
p3293
I00
sVcontains(bank)
p3294
I00
sVcontains(book)
p3295
I01
sVcontains(balance)
p3296
I00
sVcontains(want)
p3297
I00
sVcontains(accomodation)
p3298
I00
sVcontains(i)
p3299
I00
sVcontains(confirm)
p3300
I00
sVcontains(letter)
p3301
I00
sVcontains(initiate)
p3302
I00
sVcontains(need)
p3303
I00
sVcontains(to)
p3304
I00
sVcontains(savings)
p3305
I00
sVcontains(get)
p3306
I00
sVcontains(booking)
p3307
I00
sVcontains(statement)
p3308
I00
sVcontains(what)
p3309
I00
sVcontains(document)
p3310
I00
sVcontains(much)
p3311
I00
sVcontains(make)
p3312
I00
sVcontains(help)
p3313
I00
sVcontains('s)
p3314
I00
sVcontains(transaction)
p3315
I00
sVcontains(details)
p3316
I00
sVcontains(nice)
p3317
I01
sVcontains(amount)
p3318
I00
sVcontains(can)
p3319
I00
sS'Book hotel'
p3320
tp3321
a((dp3322
Vcontains(corporate)
p3323
I00
sVcontains(confirmation)
p3324
I00
sVcontains(of)
p3325
I01
sVcontains(current)
p3326
I00
sVcontains(start)
p3327
I00
sVcontains(proof)
p3328
I01
sVcontains(card)
p3329
I00
sVcontains(me)
p3330
I00
sVcontains(certificate)
p3331
I00
sVcontains(using)
p3332
I00
sVcontains(have)
p3333
I01
sVcontains(how)
p3334
I00
sVcontains(in)
p3335
I00
sVcontains(pay)
p3336
I00
sVcontains(ask)
p3337
I00
sVcontains(a)
p3338
I01
sVcontains(on)
p3339
I00
sVcontains(account)
p3340
I01
sVcontains(payment)
p3341
I00
sVcontains(the)
p3342
I00
sVcontains(use)
p3343
I00
sVcontains(Alexa)
p3344
I00
sVcontains(do)
p3345
I00
sVcontains(my)
p3346
I01
sVcontains(checking)
p3347
I00
sVcontains(for)
p3348
I00
sVcontains(transfer)
p3349
I00
sVcontains(starting)
p3350
I00
sVcontains(hotel)
p3351
I00
sVcontains(head)
p3352
I00
sVcontains(tell)
p3353
I00
sVcontains(city)
p3354
I00
sVcontains(I)
p3355
I00
sVcontains(an)
p3356
I00
sVcontains(is)
p3357
I00
sVcontains(doing)
p3358
I00
sVcontains(money)
p3359
I00
sVcontains(alexa)
p3360
I00
sVcontains(citi)
p3361
I00
sVcontains(online)
p3362
I00
sVcontains(give)
p3363
I00
sVcontains(detais)
p3364
I00
sVcontains(credit)
p3365
I00
sVcontains(bank)
p3366
I00
sVcontains(book)
p3367
I00
sVcontains(balance)
p3368
I00
sVcontains(want)
p3369
I00
sVcontains(accomodation)
p3370
I00
sVcontains(i)
p3371
I01
sVcontains(confirm)
p3372
I00
sVcontains(letter)
p3373
I00
sVcontains(initiate)
p3374
I00
sVcontains(need)
p3375
I00
sVcontains(to)
p3376
I00
sVcontains(savings)
p3377
I00
sVcontains(get)
p3378
I00
sVcontains(booking)
p3379
I00
sVcontains(statement)
p3380
I00
sVcontains(what)
p3381
I00
sVcontains(document)
p3382
I00
sVcontains(much)
p3383
I00
sVcontains(make)
p3384
I00
sVcontains(help)
p3385
I00
sVcontains('s)
p3386
I00
sVcontains(transaction)
p3387
I00
sVcontains(details)
p3388
I00
sVcontains(nice)
p3389
I00
sVcontains(amount)
p3390
I00
sVcontains(can)
p3391
I01
sS'Account Proof'
p3392
tp3393
a((dp3394
Vcontains(corporate)
p3395
I00
sVcontains(confirmation)
p3396
I00
sVcontains(of)
p3397
I00
sVcontains(current)
p3398
I00
sVcontains(start)
p3399
I00
sVcontains(proof)
p3400
I01
sVcontains(card)
p3401
I00
sVcontains(me)
p3402
I00
sVcontains(certificate)
p3403
I00
sVcontains(using)
p3404
I00
sVcontains(have)
p3405
I01
sVcontains(how)
p3406
I00
sVcontains(in)
p3407
I00
sVcontains(pay)
p3408
I00
sVcontains(ask)
p3409
I00
sVcontains(a)
p3410
I00
sVcontains(on)
p3411
I00
sVcontains(account)
p3412
I01
sVcontains(payment)
p3413
I00
sVcontains(the)
p3414
I00
sVcontains(use)
p3415
I00
sVcontains(Alexa)
p3416
I00
sVcontains(do)
p3417
I00
sVcontains(my)
p3418
I00
sVcontains(checking)
p3419
I00
sVcontains(for)
p3420
I00
sVcontains(transfer)
p3421
I00
sVcontains(starting)
p3422
I00
sVcontains(hotel)
p3423
I00
sVcontains(head)
p3424
I00
sVcontains(tell)
p3425
I00
sVcontains(city)
p3426
I00
sVcontains(I)
p3427
I00
sVcontains(an)
p3428
I01
sVcontains(is)
p3429
I00
sVcontains(doing)
p3430
I00
sVcontains(money)
p3431
I00
sVcontains(alexa)
p3432
I00
sVcontains(citi)
p3433
I00
sVcontains(online)
p3434
I00
sVcontains(give)
p3435
I00
sVcontains(detais)
p3436
I00
sVcontains(credit)
p3437
I00
sVcontains(bank)
p3438
I00
sVcontains(book)
p3439
I00
sVcontains(balance)
p3440
I00
sVcontains(want)
p3441
I00
sVcontains(accomodation)
p3442
I00
sVcontains(i)
p3443
I01
sVcontains(confirm)
p3444
I00
sVcontains(letter)
p3445
I00
sVcontains(initiate)
p3446
I00
sVcontains(need)
p3447
I00
sVcontains(to)
p3448
I00
sVcontains(savings)
p3449
I00
sVcontains(get)
p3450
I00
sVcontains(booking)
p3451
I00
sVcontains(statement)
p3452
I00
sVcontains(what)
p3453
I00
sVcontains(document)
p3454
I00
sVcontains(much)
p3455
I00
sVcontains(make)
p3456
I00
sVcontains(help)
p3457
I00
sVcontains('s)
p3458
I00
sVcontains(transaction)
p3459
I00
sVcontains(details)
p3460
I00
sVcontains(nice)
p3461
I00
sVcontains(amount)
p3462
I00
sVcontains(can)
p3463
I01
sS'Account Proof'
p3464
tp3465
a((dp3466
Vcontains(corporate)
p3467
I00
sVcontains(confirmation)
p3468
I00
sVcontains(of)
p3469
I00
sVcontains(current)
p3470
I00
sVcontains(start)
p3471
I00
sVcontains(proof)
p3472
I01
sVcontains(card)
p3473
I00
sVcontains(me)
p3474
I00
sVcontains(certificate)
p3475
I00
sVcontains(using)
p3476
I00
sVcontains(have)
p3477
I00
sVcontains(how)
p3478
I00
sVcontains(in)
p3479
I00
sVcontains(pay)
p3480
I00
sVcontains(ask)
p3481
I00
sVcontains(a)
p3482
I01
sVcontains(on)
p3483
I01
sVcontains(account)
p3484
I01
sVcontains(payment)
p3485
I00
sVcontains(the)
p3486
I00
sVcontains(use)
p3487
I00
sVcontains(Alexa)
p3488
I00
sVcontains(do)
p3489
I00
sVcontains(my)
p3490
I01
sVcontains(checking)
p3491
I00
sVcontains(for)
p3492
I00
sVcontains(transfer)
p3493
I00
sVcontains(starting)
p3494
I00
sVcontains(hotel)
p3495
I00
sVcontains(head)
p3496
I00
sVcontains(tell)
p3497
I00
sVcontains(city)
p3498
I00
sVcontains(I)
p3499
I00
sVcontains(an)
p3500
I00
sVcontains(is)
p3501
I00
sVcontains(doing)
p3502
I00
sVcontains(money)
p3503
I00
sVcontains(alexa)
p3504
I00
sVcontains(citi)
p3505
I00
sVcontains(online)
p3506
I00
sVcontains(give)
p3507
I00
sVcontains(detais)
p3508
I00
sVcontains(credit)
p3509
I00
sVcontains(bank)
p3510
I00
sVcontains(book)
p3511
I00
sVcontains(balance)
p3512
I00
sVcontains(want)
p3513
I00
sVcontains(accomodation)
p3514
I00
sVcontains(i)
p3515
I01
sVcontains(confirm)
p3516
I00
sVcontains(letter)
p3517
I00
sVcontains(initiate)
p3518
I00
sVcontains(need)
p3519
I00
sVcontains(to)
p3520
I00
sVcontains(savings)
p3521
I00
sVcontains(get)
p3522
I01
sVcontains(booking)
p3523
I00
sVcontains(statement)
p3524
I00
sVcontains(what)
p3525
I00
sVcontains(document)
p3526
I01
sVcontains(much)
p3527
I00
sVcontains(make)
p3528
I00
sVcontains(help)
p3529
I00
sVcontains('s)
p3530
I00
sVcontains(transaction)
p3531
I00
sVcontains(details)
p3532
I00
sVcontains(nice)
p3533
I00
sVcontains(amount)
p3534
I00
sVcontains(can)
p3535
I01
sS'Account Proof'
p3536
tp3537
a((dp3538
Vcontains(corporate)
p3539
I00
sVcontains(confirmation)
p3540
I00
sVcontains(of)
p3541
I00
sVcontains(current)
p3542
I00
sVcontains(start)
p3543
I00
sVcontains(proof)
p3544
I01
sVcontains(card)
p3545
I00
sVcontains(me)
p3546
I00
sVcontains(certificate)
p3547
I00
sVcontains(using)
p3548
I00
sVcontains(have)
p3549
I00
sVcontains(how)
p3550
I00
sVcontains(in)
p3551
I00
sVcontains(pay)
p3552
I00
sVcontains(ask)
p3553
I00
sVcontains(a)
p3554
I00
sVcontains(on)
p3555
I00
sVcontains(account)
p3556
I01
sVcontains(payment)
p3557
I00
sVcontains(the)
p3558
I00
sVcontains(use)
p3559
I00
sVcontains(Alexa)
p3560
I00
sVcontains(do)
p3561
I00
sVcontains(my)
p3562
I00
sVcontains(checking)
p3563
I00
sVcontains(for)
p3564
I00
sVcontains(transfer)
p3565
I00
sVcontains(starting)
p3566
I00
sVcontains(hotel)
p3567
I00
sVcontains(head)
p3568
I00
sVcontains(tell)
p3569
I00
sVcontains(city)
p3570
I00
sVcontains(I)
p3571
I00
sVcontains(an)
p3572
I00
sVcontains(is)
p3573
I00
sVcontains(doing)
p3574
I00
sVcontains(money)
p3575
I00
sVcontains(alexa)
p3576
I00
sVcontains(citi)
p3577
I00
sVcontains(online)
p3578
I00
sVcontains(give)
p3579
I00
sVcontains(detais)
p3580
I00
sVcontains(credit)
p3581
I00
sVcontains(bank)
p3582
I00
sVcontains(book)
p3583
I00
sVcontains(balance)
p3584
I00
sVcontains(want)
p3585
I01
sVcontains(accomodation)
p3586
I00
sVcontains(i)
p3587
I01
sVcontains(confirm)
p3588
I00
sVcontains(letter)
p3589
I00
sVcontains(initiate)
p3590
I00
sVcontains(need)
p3591
I00
sVcontains(to)
p3592
I00
sVcontains(savings)
p3593
I00
sVcontains(get)
p3594
I00
sVcontains(booking)
p3595
I00
sVcontains(statement)
p3596
I00
sVcontains(what)
p3597
I00
sVcontains(document)
p3598
I00
sVcontains(much)
p3599
I00
sVcontains(make)
p3600
I00
sVcontains(help)
p3601
I00
sVcontains('s)
p3602
I00
sVcontains(transaction)
p3603
I00
sVcontains(details)
p3604
I00
sVcontains(nice)
p3605
I00
sVcontains(amount)
p3606
I00
sVcontains(can)
p3607
I00
sS'Account Proof'
p3608
tp3609
a((dp3610
Vcontains(corporate)
p3611
I00
sVcontains(confirmation)
p3612
I00
sVcontains(of)
p3613
I00
sVcontains(current)
p3614
I00
sVcontains(start)
p3615
I00
sVcontains(proof)
p3616
I01
sVcontains(card)
p3617
I00
sVcontains(me)
p3618
I00
sVcontains(certificate)
p3619
I00
sVcontains(using)
p3620
I00
sVcontains(have)
p3621
I00
sVcontains(how)
p3622
I00
sVcontains(in)
p3623
I00
sVcontains(pay)
p3624
I00
sVcontains(ask)
p3625
I00
sVcontains(a)
p3626
I00
sVcontains(on)
p3627
I00
sVcontains(account)
p3628
I01
sVcontains(payment)
p3629
I00
sVcontains(the)
p3630
I00
sVcontains(use)
p3631
I00
sVcontains(Alexa)
p3632
I00
sVcontains(do)
p3633
I00
sVcontains(my)
p3634
I00
sVcontains(checking)
p3635
I00
sVcontains(for)
p3636
I00
sVcontains(transfer)
p3637
I00
sVcontains(starting)
p3638
I00
sVcontains(hotel)
p3639
I00
sVcontains(head)
p3640
I00
sVcontains(tell)
p3641
I00
sVcontains(city)
p3642
I00
sVcontains(I)
p3643
I00
sVcontains(an)
p3644
I00
sVcontains(is)
p3645
I00
sVcontains(doing)
p3646
I00
sVcontains(money)
p3647
I00
sVcontains(alexa)
p3648
I00
sVcontains(citi)
p3649
I00
sVcontains(online)
p3650
I00
sVcontains(give)
p3651
I00
sVcontains(detais)
p3652
I00
sVcontains(credit)
p3653
I00
sVcontains(bank)
p3654
I00
sVcontains(book)
p3655
I00
sVcontains(balance)
p3656
I00
sVcontains(want)
p3657
I00
sVcontains(accomodation)
p3658
I00
sVcontains(i)
p3659
I00
sVcontains(confirm)
p3660
I00
sVcontains(letter)
p3661
I00
sVcontains(initiate)
p3662
I00
sVcontains(need)
p3663
I00
sVcontains(to)
p3664
I00
sVcontains(savings)
p3665
I00
sVcontains(get)
p3666
I00
sVcontains(booking)
p3667
I00
sVcontains(statement)
p3668
I00
sVcontains(what)
p3669
I00
sVcontains(document)
p3670
I00
sVcontains(much)
p3671
I00
sVcontains(make)
p3672
I00
sVcontains(help)
p3673
I00
sVcontains('s)
p3674
I00
sVcontains(transaction)
p3675
I00
sVcontains(details)
p3676
I00
sVcontains(nice)
p3677
I00
sVcontains(amount)
p3678
I00
sVcontains(can)
p3679
I00
sS'Account Proof'
p3680
tp3681
a((dp3682
Vcontains(corporate)
p3683
I00
sVcontains(confirmation)
p3684
I00
sVcontains(of)
p3685
I01
sVcontains(current)
p3686
I00
sVcontains(start)
p3687
I00
sVcontains(proof)
p3688
I01
sVcontains(card)
p3689
I00
sVcontains(me)
p3690
I00
sVcontains(certificate)
p3691
I00
sVcontains(using)
p3692
I00
sVcontains(have)
p3693
I00
sVcontains(how)
p3694
I00
sVcontains(in)
p3695
I00
sVcontains(pay)
p3696
I00
sVcontains(ask)
p3697
I00
sVcontains(a)
p3698
I00
sVcontains(on)
p3699
I00
sVcontains(account)
p3700
I01
sVcontains(payment)
p3701
I00
sVcontains(the)
p3702
I00
sVcontains(use)
p3703
I00
sVcontains(Alexa)
p3704
I00
sVcontains(do)
p3705
I00
sVcontains(my)
p3706
I00
sVcontains(checking)
p3707
I00
sVcontains(for)
p3708
I00
sVcontains(transfer)
p3709
I00
sVcontains(starting)
p3710
I00
sVcontains(hotel)
p3711
I00
sVcontains(head)
p3712
I00
sVcontains(tell)
p3713
I00
sVcontains(city)
p3714
I00
sVcontains(I)
p3715
I00
sVcontains(an)
p3716
I00
sVcontains(is)
p3717
I00
sVcontains(doing)
p3718
I00
sVcontains(money)
p3719
I00
sVcontains(alexa)
p3720
I00
sVcontains(citi)
p3721
I00
sVcontains(online)
p3722
I00
sVcontains(give)
p3723
I01
sVcontains(detais)
p3724
I00
sVcontains(credit)
p3725
I00
sVcontains(bank)
p3726
I00
sVcontains(book)
p3727
I00
sVcontains(balance)
p3728
I00
sVcontains(want)
p3729
I00
sVcontains(accomodation)
p3730
I00
sVcontains(i)
p3731
I00
sVcontains(confirm)
p3732
I00
sVcontains(letter)
p3733
I00
sVcontains(initiate)
p3734
I00
sVcontains(need)
p3735
I00
sVcontains(to)
p3736
I00
sVcontains(savings)
p3737
I00
sVcontains(get)
p3738
I00
sVcontains(booking)
p3739
I00
sVcontains(statement)
p3740
I00
sVcontains(what)
p3741
I00
sVcontains(document)
p3742
I00
sVcontains(much)
p3743
I00
sVcontains(make)
p3744
I00
sVcontains(help)
p3745
I00
sVcontains('s)
p3746
I00
sVcontains(transaction)
p3747
I00
sVcontains(details)
p3748
I00
sVcontains(nice)
p3749
I00
sVcontains(amount)
p3750
I00
sVcontains(can)
p3751
I00
sS'Account Proof'
p3752
tp3753
a((dp3754
Vcontains(corporate)
p3755
I00
sVcontains(confirmation)
p3756
I01
sVcontains(of)
p3757
I00
sVcontains(current)
p3758
I00
sVcontains(start)
p3759
I00
sVcontains(proof)
p3760
I00
sVcontains(card)
p3761
I00
sVcontains(me)
p3762
I00
sVcontains(certificate)
p3763
I00
sVcontains(using)
p3764
I00
sVcontains(have)
p3765
I00
sVcontains(how)
p3766
I00
sVcontains(in)
p3767
I00
sVcontains(pay)
p3768
I00
sVcontains(ask)
p3769
I00
sVcontains(a)
p3770
I00
sVcontains(on)
p3771
I00
sVcontains(account)
p3772
I01
sVcontains(payment)
p3773
I00
sVcontains(the)
p3774
I00
sVcontains(use)
p3775
I00
sVcontains(Alexa)
p3776
I00
sVcontains(do)
p3777
I00
sVcontains(my)
p3778
I00
sVcontains(checking)
p3779
I00
sVcontains(for)
p3780
I00
sVcontains(transfer)
p3781
I00
sVcontains(starting)
p3782
I00
sVcontains(hotel)
p3783
I00
sVcontains(head)
p3784
I00
sVcontains(tell)
p3785
I00
sVcontains(city)
p3786
I00
sVcontains(I)
p3787
I00
sVcontains(an)
p3788
I00
sVcontains(is)
p3789
I00
sVcontains(doing)
p3790
I00
sVcontains(money)
p3791
I00
sVcontains(alexa)
p3792
I00
sVcontains(citi)
p3793
I00
sVcontains(online)
p3794
I00
sVcontains(give)
p3795
I00
sVcontains(detais)
p3796
I00
sVcontains(credit)
p3797
I00
sVcontains(bank)
p3798
I00
sVcontains(book)
p3799
I00
sVcontains(balance)
p3800
I00
sVcontains(want)
p3801
I00
sVcontains(accomodation)
p3802
I00
sVcontains(i)
p3803
I00
sVcontains(confirm)
p3804
I00
sVcontains(letter)
p3805
I00
sVcontains(initiate)
p3806
I00
sVcontains(need)
p3807
I00
sVcontains(to)
p3808
I00
sVcontains(savings)
p3809
I00
sVcontains(get)
p3810
I00
sVcontains(booking)
p3811
I00
sVcontains(statement)
p3812
I00
sVcontains(what)
p3813
I00
sVcontains(document)
p3814
I00
sVcontains(much)
p3815
I00
sVcontains(make)
p3816
I00
sVcontains(help)
p3817
I00
sVcontains('s)
p3818
I00
sVcontains(transaction)
p3819
I00
sVcontains(details)
p3820
I00
sVcontains(nice)
p3821
I00
sVcontains(amount)
p3822
I00
sVcontains(can)
p3823
I00
sS'Account Proof'
p3824
tp3825
a((dp3826
Vcontains(corporate)
p3827
I00
sVcontains(confirmation)
p3828
I01
sVcontains(of)
p3829
I00
sVcontains(current)
p3830
I00
sVcontains(start)
p3831
I00
sVcontains(proof)
p3832
I00
sVcontains(card)
p3833
I00
sVcontains(me)
p3834
I00
sVcontains(certificate)
p3835
I00
sVcontains(using)
p3836
I00
sVcontains(have)
p3837
I00
sVcontains(how)
p3838
I00
sVcontains(in)
p3839
I00
sVcontains(pay)
p3840
I00
sVcontains(ask)
p3841
I00
sVcontains(a)
p3842
I01
sVcontains(on)
p3843
I01
sVcontains(account)
p3844
I01
sVcontains(payment)
p3845
I00
sVcontains(the)
p3846
I00
sVcontains(use)
p3847
I00
sVcontains(Alexa)
p3848
I00
sVcontains(do)
p3849
I00
sVcontains(my)
p3850
I01
sVcontains(checking)
p3851
I00
sVcontains(for)
p3852
I00
sVcontains(transfer)
p3853
I00
sVcontains(starting)
p3854
I00
sVcontains(hotel)
p3855
I00
sVcontains(head)
p3856
I00
sVcontains(tell)
p3857
I00
sVcontains(city)
p3858
I00
sVcontains(I)
p3859
I00
sVcontains(an)
p3860
I00
sVcontains(is)
p3861
I00
sVcontains(doing)
p3862
I00
sVcontains(money)
p3863
I00
sVcontains(alexa)
p3864
I00
sVcontains(citi)
p3865
I00
sVcontains(online)
p3866
I00
sVcontains(give)
p3867
I00
sVcontains(detais)
p3868
I00
sVcontains(credit)
p3869
I00
sVcontains(bank)
p3870
I00
sVcontains(book)
p3871
I00
sVcontains(balance)
p3872
I00
sVcontains(want)
p3873
I01
sVcontains(accomodation)
p3874
I00
sVcontains(i)
p3875
I01
sVcontains(confirm)
p3876
I00
sVcontains(letter)
p3877
I00
sVcontains(initiate)
p3878
I00
sVcontains(need)
p3879
I00
sVcontains(to)
p3880
I00
sVcontains(savings)
p3881
I00
sVcontains(get)
p3882
I00
sVcontains(booking)
p3883
I00
sVcontains(statement)
p3884
I00
sVcontains(what)
p3885
I00
sVcontains(document)
p3886
I01
sVcontains(much)
p3887
I00
sVcontains(make)
p3888
I00
sVcontains(help)
p3889
I00
sVcontains('s)
p3890
I00
sVcontains(transaction)
p3891
I00
sVcontains(details)
p3892
I00
sVcontains(nice)
p3893
I00
sVcontains(amount)
p3894
I00
sVcontains(can)
p3895
I00
sS'Account Proof'
p3896
tp3897
a((dp3898
Vcontains(corporate)
p3899
I00
sVcontains(confirmation)
p3900
I01
sVcontains(of)
p3901
I00
sVcontains(current)
p3902
I00
sVcontains(start)
p3903
I00
sVcontains(proof)
p3904
I00
sVcontains(card)
p3905
I00
sVcontains(me)
p3906
I01
sVcontains(certificate)
p3907
I00
sVcontains(using)
p3908
I00
sVcontains(have)
p3909
I00
sVcontains(how)
p3910
I00
sVcontains(in)
p3911
I00
sVcontains(pay)
p3912
I00
sVcontains(ask)
p3913
I00
sVcontains(a)
p3914
I01
sVcontains(on)
p3915
I00
sVcontains(account)
p3916
I01
sVcontains(payment)
p3917
I00
sVcontains(the)
p3918
I00
sVcontains(use)
p3919
I00
sVcontains(Alexa)
p3920
I00
sVcontains(do)
p3921
I00
sVcontains(my)
p3922
I00
sVcontains(checking)
p3923
I00
sVcontains(for)
p3924
I00
sVcontains(transfer)
p3925
I00
sVcontains(starting)
p3926
I00
sVcontains(hotel)
p3927
I00
sVcontains(head)
p3928
I00
sVcontains(tell)
p3929
I00
sVcontains(city)
p3930
I00
sVcontains(I)
p3931
I00
sVcontains(an)
p3932
I00
sVcontains(is)
p3933
I00
sVcontains(doing)
p3934
I00
sVcontains(money)
p3935
I00
sVcontains(alexa)
p3936
I00
sVcontains(citi)
p3937
I00
sVcontains(online)
p3938
I00
sVcontains(give)
p3939
I01
sVcontains(detais)
p3940
I00
sVcontains(credit)
p3941
I00
sVcontains(bank)
p3942
I00
sVcontains(book)
p3943
I00
sVcontains(balance)
p3944
I00
sVcontains(want)
p3945
I00
sVcontains(accomodation)
p3946
I00
sVcontains(i)
p3947
I00
sVcontains(confirm)
p3948
I00
sVcontains(letter)
p3949
I00
sVcontains(initiate)
p3950
I00
sVcontains(need)
p3951
I00
sVcontains(to)
p3952
I00
sVcontains(savings)
p3953
I00
sVcontains(get)
p3954
I00
sVcontains(booking)
p3955
I00
sVcontains(statement)
p3956
I00
sVcontains(what)
p3957
I00
sVcontains(document)
p3958
I01
sVcontains(much)
p3959
I00
sVcontains(make)
p3960
I00
sVcontains(help)
p3961
I00
sVcontains('s)
p3962
I00
sVcontains(transaction)
p3963
I00
sVcontains(details)
p3964
I00
sVcontains(nice)
p3965
I00
sVcontains(amount)
p3966
I00
sVcontains(can)
p3967
I00
sS'Account Proof'
p3968
tp3969
a((dp3970
Vcontains(corporate)
p3971
I00
sVcontains(confirmation)
p3972
I00
sVcontains(of)
p3973
I00
sVcontains(current)
p3974
I00
sVcontains(start)
p3975
I00
sVcontains(proof)
p3976
I00
sVcontains(card)
p3977
I00
sVcontains(me)
p3978
I00
sVcontains(certificate)
p3979
I00
sVcontains(using)
p3980
I00
sVcontains(have)
p3981
I00
sVcontains(how)
p3982
I00
sVcontains(in)
p3983
I00
sVcontains(pay)
p3984
I00
sVcontains(ask)
p3985
I00
sVcontains(a)
p3986
I00
sVcontains(on)
p3987
I00
sVcontains(account)
p3988
I01
sVcontains(payment)
p3989
I00
sVcontains(the)
p3990
I00
sVcontains(use)
p3991
I00
sVcontains(Alexa)
p3992
I00
sVcontains(do)
p3993
I00
sVcontains(my)
p3994
I01
sVcontains(checking)
p3995
I00
sVcontains(for)
p3996
I00
sVcontains(transfer)
p3997
I00
sVcontains(starting)
p3998
I00
sVcontains(hotel)
p3999
I00
sVcontains(head)
p4000
I00
sVcontains(tell)
p4001
I00
sVcontains(city)
p4002
I00
sVcontains(I)
p4003
I00
sVcontains(an)
p4004
I00
sVcontains(is)
p4005
I00
sVcontains(doing)
p4006
I00
sVcontains(money)
p4007
I00
sVcontains(alexa)
p4008
I00
sVcontains(citi)
p4009
I00
sVcontains(online)
p4010
I00
sVcontains(give)
p4011
I00
sVcontains(detais)
p4012
I00
sVcontains(credit)
p4013
I00
sVcontains(bank)
p4014
I00
sVcontains(book)
p4015
I00
sVcontains(balance)
p4016
I00
sVcontains(want)
p4017
I00
sVcontains(accomodation)
p4018
I00
sVcontains(i)
p4019
I00
sVcontains(confirm)
p4020
I01
sVcontains(letter)
p4021
I00
sVcontains(initiate)
p4022
I00
sVcontains(need)
p4023
I00
sVcontains(to)
p4024
I00
sVcontains(savings)
p4025
I00
sVcontains(get)
p4026
I00
sVcontains(booking)
p4027
I00
sVcontains(statement)
p4028
I00
sVcontains(what)
p4029
I00
sVcontains(document)
p4030
I00
sVcontains(much)
p4031
I00
sVcontains(make)
p4032
I00
sVcontains(help)
p4033
I00
sVcontains('s)
p4034
I00
sVcontains(transaction)
p4035
I00
sVcontains(details)
p4036
I00
sVcontains(nice)
p4037
I00
sVcontains(amount)
p4038
I00
sVcontains(can)
p4039
I00
sS'Account Proof'
p4040
tp4041
a((dp4042
Vcontains(corporate)
p4043
I00
sVcontains(confirmation)
p4044
I00
sVcontains(of)
p4045
I00
sVcontains(current)
p4046
I00
sVcontains(start)
p4047
I00
sVcontains(proof)
p4048
I00
sVcontains(card)
p4049
I00
sVcontains(me)
p4050
I00
sVcontains(certificate)
p4051
I00
sVcontains(using)
p4052
I00
sVcontains(have)
p4053
I00
sVcontains(how)
p4054
I00
sVcontains(in)
p4055
I00
sVcontains(pay)
p4056
I00
sVcontains(ask)
p4057
I00
sVcontains(a)
p4058
I00
sVcontains(on)
p4059
I01
sVcontains(account)
p4060
I01
sVcontains(payment)
p4061
I00
sVcontains(the)
p4062
I00
sVcontains(use)
p4063
I00
sVcontains(Alexa)
p4064
I00
sVcontains(do)
p4065
I00
sVcontains(my)
p4066
I00
sVcontains(checking)
p4067
I00
sVcontains(for)
p4068
I00
sVcontains(transfer)
p4069
I00
sVcontains(starting)
p4070
I00
sVcontains(hotel)
p4071
I00
sVcontains(head)
p4072
I01
sVcontains(tell)
p4073
I00
sVcontains(city)
p4074
I00
sVcontains(I)
p4075
I00
sVcontains(an)
p4076
I00
sVcontains(is)
p4077
I00
sVcontains(doing)
p4078
I00
sVcontains(money)
p4079
I00
sVcontains(alexa)
p4080
I00
sVcontains(citi)
p4081
I01
sVcontains(online)
p4082
I00
sVcontains(give)
p4083
I00
sVcontains(detais)
p4084
I01
sVcontains(credit)
p4085
I00
sVcontains(bank)
p4086
I01
sVcontains(book)
p4087
I00
sVcontains(balance)
p4088
I00
sVcontains(want)
p4089
I01
sVcontains(accomodation)
p4090
I00
sVcontains(i)
p4091
I01
sVcontains(confirm)
p4092
I00
sVcontains(letter)
p4093
I01
sVcontains(initiate)
p4094
I00
sVcontains(need)
p4095
I00
sVcontains(to)
p4096
I00
sVcontains(savings)
p4097
I00
sVcontains(get)
p4098
I00
sVcontains(booking)
p4099
I00
sVcontains(statement)
p4100
I00
sVcontains(what)
p4101
I00
sVcontains(document)
p4102
I00
sVcontains(much)
p4103
I00
sVcontains(make)
p4104
I00
sVcontains(help)
p4105
I00
sVcontains('s)
p4106
I00
sVcontains(transaction)
p4107
I00
sVcontains(details)
p4108
I00
sVcontains(nice)
p4109
I00
sVcontains(amount)
p4110
I00
sVcontains(can)
p4111
I00
sS'Account Proof'
p4112
tp4113
a((dp4114
Vcontains(corporate)
p4115
I00
sVcontains(confirmation)
p4116
I00
sVcontains(of)
p4117
I00
sVcontains(current)
p4118
I00
sVcontains(start)
p4119
I00
sVcontains(proof)
p4120
I00
sVcontains(card)
p4121
I00
sVcontains(me)
p4122
I00
sVcontains(certificate)
p4123
I01
sVcontains(using)
p4124
I00
sVcontains(have)
p4125
I00
sVcontains(how)
p4126
I00
sVcontains(in)
p4127
I00
sVcontains(pay)
p4128
I00
sVcontains(ask)
p4129
I00
sVcontains(a)
p4130
I00
sVcontains(on)
p4131
I00
sVcontains(account)
p4132
I01
sVcontains(payment)
p4133
I00
sVcontains(the)
p4134
I00
sVcontains(use)
p4135
I00
sVcontains(Alexa)
p4136
I00
sVcontains(do)
p4137
I00
sVcontains(my)
p4138
I00
sVcontains(checking)
p4139
I00
sVcontains(for)
p4140
I00
sVcontains(transfer)
p4141
I00
sVcontains(starting)
p4142
I00
sVcontains(hotel)
p4143
I00
sVcontains(head)
p4144
I00
sVcontains(tell)
p4145
I00
sVcontains(city)
p4146
I00
sVcontains(I)
p4147
I00
sVcontains(an)
p4148
I00
sVcontains(is)
p4149
I00
sVcontains(doing)
p4150
I00
sVcontains(money)
p4151
I00
sVcontains(alexa)
p4152
I00
sVcontains(citi)
p4153
I00
sVcontains(online)
p4154
I00
sVcontains(give)
p4155
I00
sVcontains(detais)
p4156
I00
sVcontains(credit)
p4157
I00
sVcontains(bank)
p4158
I01
sVcontains(book)
p4159
I00
sVcontains(balance)
p4160
I00
sVcontains(want)
p4161
I01
sVcontains(accomodation)
p4162
I00
sVcontains(i)
p4163
I01
sVcontains(confirm)
p4164
I00
sVcontains(letter)
p4165
I00
sVcontains(initiate)
p4166
I00
sVcontains(need)
p4167
I00
sVcontains(to)
p4168
I00
sVcontains(savings)
p4169
I00
sVcontains(get)
p4170
I00
sVcontains(booking)
p4171
I00
sVcontains(statement)
p4172
I00
sVcontains(what)
p4173
I00
sVcontains(document)
p4174
I00
sVcontains(much)
p4175
I00
sVcontains(make)
p4176
I00
sVcontains(help)
p4177
I00
sVcontains('s)
p4178
I00
sVcontains(transaction)
p4179
I00
sVcontains(details)
p4180
I01
sVcontains(nice)
p4181
I00
sVcontains(amount)
p4182
I00
sVcontains(can)
p4183
I00
sS'Account Proof'
p4184
tp4185
a((dp4186
Vcontains(corporate)
p4187
I00
sVcontains(confirmation)
p4188
I00
sVcontains(of)
p4189
I00
sVcontains(current)
p4190
I00
sVcontains(start)
p4191
I00
sVcontains(proof)
p4192
I00
sVcontains(card)
p4193
I00
sVcontains(me)
p4194
I00
sVcontains(certificate)
p4195
I00
sVcontains(using)
p4196
I00
sVcontains(have)
p4197
I00
sVcontains(how)
p4198
I00
sVcontains(in)
p4199
I00
sVcontains(pay)
p4200
I00
sVcontains(ask)
p4201
I00
sVcontains(a)
p4202
I00
sVcontains(on)
p4203
I01
sVcontains(account)
p4204
I01
sVcontains(payment)
p4205
I00
sVcontains(the)
p4206
I00
sVcontains(use)
p4207
I00
sVcontains(Alexa)
p4208
I00
sVcontains(do)
p4209
I00
sVcontains(my)
p4210
I00
sVcontains(checking)
p4211
I00
sVcontains(for)
p4212
I00
sVcontains(transfer)
p4213
I00
sVcontains(starting)
p4214
I00
sVcontains(hotel)
p4215
I00
sVcontains(head)
p4216
I01
sVcontains(tell)
p4217
I00
sVcontains(city)
p4218
I00
sVcontains(I)
p4219
I00
sVcontains(an)
p4220
I00
sVcontains(is)
p4221
I00
sVcontains(doing)
p4222
I00
sVcontains(money)
p4223
I00
sVcontains(alexa)
p4224
I00
sVcontains(citi)
p4225
I01
sVcontains(online)
p4226
I00
sVcontains(give)
p4227
I00
sVcontains(detais)
p4228
I00
sVcontains(credit)
p4229
I00
sVcontains(bank)
p4230
I01
sVcontains(book)
p4231
I00
sVcontains(balance)
p4232
I00
sVcontains(want)
p4233
I00
sVcontains(accomodation)
p4234
I00
sVcontains(i)
p4235
I00
sVcontains(confirm)
p4236
I00
sVcontains(letter)
p4237
I01
sVcontains(initiate)
p4238
I00
sVcontains(need)
p4239
I00
sVcontains(to)
p4240
I00
sVcontains(savings)
p4241
I00
sVcontains(get)
p4242
I00
sVcontains(booking)
p4243
I00
sVcontains(statement)
p4244
I00
sVcontains(what)
p4245
I00
sVcontains(document)
p4246
I00
sVcontains(much)
p4247
I00
sVcontains(make)
p4248
I00
sVcontains(help)
p4249
I00
sVcontains('s)
p4250
I00
sVcontains(transaction)
p4251
I00
sVcontains(details)
p4252
I01
sVcontains(nice)
p4253
I00
sVcontains(amount)
p4254
I00
sVcontains(can)
p4255
I00
sS'Account Proof'
p4256
tp4257
a((dp4258
Vcontains(corporate)
p4259
I00
sVcontains(confirmation)
p4260
I00
sVcontains(of)
p4261
I00
sVcontains(current)
p4262
I00
sVcontains(start)
p4263
I00
sVcontains(proof)
p4264
I00
sVcontains(card)
p4265
I00
sVcontains(me)
p4266
I00
sVcontains(certificate)
p4267
I01
sVcontains(using)
p4268
I00
sVcontains(have)
p4269
I00
sVcontains(how)
p4270
I00
sVcontains(in)
p4271
I00
sVcontains(pay)
p4272
I00
sVcontains(ask)
p4273
I00
sVcontains(a)
p4274
I00
sVcontains(on)
p4275
I00
sVcontains(account)
p4276
I01
sVcontains(payment)
p4277
I00
sVcontains(the)
p4278
I00
sVcontains(use)
p4279
I00
sVcontains(Alexa)
p4280
I00
sVcontains(do)
p4281
I00
sVcontains(my)
p4282
I00
sVcontains(checking)
p4283
I00
sVcontains(for)
p4284
I00
sVcontains(transfer)
p4285
I00
sVcontains(starting)
p4286
I00
sVcontains(hotel)
p4287
I00
sVcontains(head)
p4288
I00
sVcontains(tell)
p4289
I00
sVcontains(city)
p4290
I00
sVcontains(I)
p4291
I00
sVcontains(an)
p4292
I00
sVcontains(is)
p4293
I00
sVcontains(doing)
p4294
I00
sVcontains(money)
p4295
I00
sVcontains(alexa)
p4296
I00
sVcontains(citi)
p4297
I00
sVcontains(online)
p4298
I00
sVcontains(give)
p4299
I00
sVcontains(detais)
p4300
I00
sVcontains(credit)
p4301
I00
sVcontains(bank)
p4302
I01
sVcontains(book)
p4303
I00
sVcontains(balance)
p4304
I00
sVcontains(want)
p4305
I00
sVcontains(accomodation)
p4306
I00
sVcontains(i)
p4307
I00
sVcontains(confirm)
p4308
I00
sVcontains(letter)
p4309
I00
sVcontains(initiate)
p4310
I00
sVcontains(need)
p4311
I00
sVcontains(to)
p4312
I00
sVcontains(savings)
p4313
I00
sVcontains(get)
p4314
I00
sVcontains(booking)
p4315
I00
sVcontains(statement)
p4316
I00
sVcontains(what)
p4317
I00
sVcontains(document)
p4318
I00
sVcontains(much)
p4319
I00
sVcontains(make)
p4320
I00
sVcontains(help)
p4321
I00
sVcontains('s)
p4322
I00
sVcontains(transaction)
p4323
I00
sVcontains(details)
p4324
I01
sVcontains(nice)
p4325
I00
sVcontains(amount)
p4326
I00
sVcontains(can)
p4327
I00
sS'Account Proof'
p4328
tp4329
a((dp4330
Vcontains(corporate)
p4331
I00
sVcontains(confirmation)
p4332
I00
sVcontains(of)
p4333
I00
sVcontains(current)
p4334
I00
sVcontains(start)
p4335
I01
sVcontains(proof)
p4336
I00
sVcontains(card)
p4337
I00
sVcontains(me)
p4338
I00
sVcontains(certificate)
p4339
I00
sVcontains(using)
p4340
I00
sVcontains(have)
p4341
I00
sVcontains(how)
p4342
I01
sVcontains(in)
p4343
I00
sVcontains(pay)
p4344
I00
sVcontains(ask)
p4345
I00
sVcontains(a)
p4346
I00
sVcontains(on)
p4347
I00
sVcontains(account)
p4348
I00
sVcontains(payment)
p4349
I00
sVcontains(the)
p4350
I00
sVcontains(use)
p4351
I00
sVcontains(Alexa)
p4352
I00
sVcontains(do)
p4353
I01
sVcontains(my)
p4354
I00
sVcontains(checking)
p4355
I00
sVcontains(for)
p4356
I00
sVcontains(transfer)
p4357
I00
sVcontains(starting)
p4358
I00
sVcontains(hotel)
p4359
I00
sVcontains(head)
p4360
I00
sVcontains(tell)
p4361
I00
sVcontains(city)
p4362
I00
sVcontains(I)
p4363
I00
sVcontains(an)
p4364
I01
sVcontains(is)
p4365
I00
sVcontains(doing)
p4366
I00
sVcontains(money)
p4367
I00
sVcontains(alexa)
p4368
I00
sVcontains(citi)
p4369
I00
sVcontains(online)
p4370
I01
sVcontains(give)
p4371
I00
sVcontains(detais)
p4372
I00
sVcontains(credit)
p4373
I00
sVcontains(bank)
p4374
I00
sVcontains(book)
p4375
I00
sVcontains(balance)
p4376
I00
sVcontains(want)
p4377
I00
sVcontains(accomodation)
p4378
I00
sVcontains(i)
p4379
I01
sVcontains(confirm)
p4380
I00
sVcontains(letter)
p4381
I00
sVcontains(initiate)
p4382
I00
sVcontains(need)
p4383
I00
sVcontains(to)
p4384
I00
sVcontains(savings)
p4385
I00
sVcontains(get)
p4386
I00
sVcontains(booking)
p4387
I00
sVcontains(statement)
p4388
I00
sVcontains(what)
p4389
I00
sVcontains(document)
p4390
I00
sVcontains(much)
p4391
I00
sVcontains(make)
p4392
I00
sVcontains(help)
p4393
I00
sVcontains('s)
p4394
I00
sVcontains(transaction)
p4395
I01
sVcontains(details)
p4396
I00
sVcontains(nice)
p4397
I00
sVcontains(amount)
p4398
I00
sVcontains(can)
p4399
I00
sS'Start video'
p4400
tp4401
a((dp4402
Vcontains(corporate)
p4403
I00
sVcontains(confirmation)
p4404
I00
sVcontains(of)
p4405
I00
sVcontains(current)
p4406
I00
sVcontains(start)
p4407
I00
sVcontains(proof)
p4408
I00
sVcontains(card)
p4409
I00
sVcontains(me)
p4410
I00
sVcontains(certificate)
p4411
I00
sVcontains(using)
p4412
I00
sVcontains(have)
p4413
I00
sVcontains(how)
p4414
I00
sVcontains(in)
p4415
I01
sVcontains(pay)
p4416
I00
sVcontains(ask)
p4417
I00
sVcontains(a)
p4418
I00
sVcontains(on)
p4419
I00
sVcontains(account)
p4420
I00
sVcontains(payment)
p4421
I00
sVcontains(the)
p4422
I00
sVcontains(use)
p4423
I00
sVcontains(Alexa)
p4424
I00
sVcontains(do)
p4425
I00
sVcontains(my)
p4426
I00
sVcontains(checking)
p4427
I00
sVcontains(for)
p4428
I00
sVcontains(transfer)
p4429
I00
sVcontains(starting)
p4430
I00
sVcontains(hotel)
p4431
I00
sVcontains(head)
p4432
I00
sVcontains(tell)
p4433
I00
sVcontains(city)
p4434
I00
sVcontains(I)
p4435
I00
sVcontains(an)
p4436
I00
sVcontains(is)
p4437
I00
sVcontains(doing)
p4438
I00
sVcontains(money)
p4439
I00
sVcontains(alexa)
p4440
I00
sVcontains(citi)
p4441
I01
sVcontains(online)
p4442
I01
sVcontains(give)
p4443
I00
sVcontains(detais)
p4444
I00
sVcontains(credit)
p4445
I00
sVcontains(bank)
p4446
I01
sVcontains(book)
p4447
I00
sVcontains(balance)
p4448
I00
sVcontains(want)
p4449
I01
sVcontains(accomodation)
p4450
I00
sVcontains(i)
p4451
I01
sVcontains(confirm)
p4452
I00
sVcontains(letter)
p4453
I00
sVcontains(initiate)
p4454
I00
sVcontains(need)
p4455
I00
sVcontains(to)
p4456
I00
sVcontains(savings)
p4457
I00
sVcontains(get)
p4458
I00
sVcontains(booking)
p4459
I00
sVcontains(statement)
p4460
I00
sVcontains(what)
p4461
I00
sVcontains(document)
p4462
I00
sVcontains(much)
p4463
I00
sVcontains(make)
p4464
I00
sVcontains(help)
p4465
I01
sVcontains('s)
p4466
I00
sVcontains(transaction)
p4467
I00
sVcontains(details)
p4468
I00
sVcontains(nice)
p4469
I00
sVcontains(amount)
p4470
I00
sVcontains(can)
p4471
I00
sS'Start video'
p4472
tp4473
a((dp4474
Vcontains(corporate)
p4475
I00
sVcontains(confirmation)
p4476
I00
sVcontains(of)
p4477
I00
sVcontains(current)
p4478
I00
sVcontains(start)
p4479
I01
sVcontains(proof)
p4480
I00
sVcontains(card)
p4481
I00
sVcontains(me)
p4482
I00
sVcontains(certificate)
p4483
I00
sVcontains(using)
p4484
I00
sVcontains(have)
p4485
I00
sVcontains(how)
p4486
I01
sVcontains(in)
p4487
I00
sVcontains(pay)
p4488
I00
sVcontains(ask)
p4489
I00
sVcontains(a)
p4490
I00
sVcontains(on)
p4491
I00
sVcontains(account)
p4492
I01
sVcontains(payment)
p4493
I00
sVcontains(the)
p4494
I00
sVcontains(use)
p4495
I00
sVcontains(Alexa)
p4496
I00
sVcontains(do)
p4497
I01
sVcontains(my)
p4498
I00
sVcontains(checking)
p4499
I00
sVcontains(for)
p4500
I00
sVcontains(transfer)
p4501
I00
sVcontains(starting)
p4502
I00
sVcontains(hotel)
p4503
I00
sVcontains(head)
p4504
I00
sVcontains(tell)
p4505
I00
sVcontains(city)
p4506
I00
sVcontains(I)
p4507
I00
sVcontains(an)
p4508
I01
sVcontains(is)
p4509
I00
sVcontains(doing)
p4510
I00
sVcontains(money)
p4511
I00
sVcontains(alexa)
p4512
I00
sVcontains(citi)
p4513
I00
sVcontains(online)
p4514
I00
sVcontains(give)
p4515
I00
sVcontains(detais)
p4516
I00
sVcontains(credit)
p4517
I00
sVcontains(bank)
p4518
I00
sVcontains(book)
p4519
I00
sVcontains(balance)
p4520
I00
sVcontains(want)
p4521
I00
sVcontains(accomodation)
p4522
I00
sVcontains(i)
p4523
I01
sVcontains(confirm)
p4524
I00
sVcontains(letter)
p4525
I00
sVcontains(initiate)
p4526
I00
sVcontains(need)
p4527
I00
sVcontains(to)
p4528
I00
sVcontains(savings)
p4529
I00
sVcontains(get)
p4530
I00
sVcontains(booking)
p4531
I00
sVcontains(statement)
p4532
I00
sVcontains(what)
p4533
I00
sVcontains(document)
p4534
I00
sVcontains(much)
p4535
I00
sVcontains(make)
p4536
I00
sVcontains(help)
p4537
I00
sVcontains('s)
p4538
I00
sVcontains(transaction)
p4539
I00
sVcontains(details)
p4540
I00
sVcontains(nice)
p4541
I00
sVcontains(amount)
p4542
I00
sVcontains(can)
p4543
I00
sS'Start video'
p4544
tp4545
a((dp4546
Vcontains(corporate)
p4547
I00
sVcontains(confirmation)
p4548
I00
sVcontains(of)
p4549
I00
sVcontains(current)
p4550
I00
sVcontains(start)
p4551
I00
sVcontains(proof)
p4552
I00
sVcontains(card)
p4553
I00
sVcontains(me)
p4554
I01
sVcontains(certificate)
p4555
I00
sVcontains(using)
p4556
I01
sVcontains(have)
p4557
I00
sVcontains(how)
p4558
I00
sVcontains(in)
p4559
I01
sVcontains(pay)
p4560
I00
sVcontains(ask)
p4561
I00
sVcontains(a)
p4562
I00
sVcontains(on)
p4563
I00
sVcontains(account)
p4564
I00
sVcontains(payment)
p4565
I00
sVcontains(the)
p4566
I00
sVcontains(use)
p4567
I00
sVcontains(Alexa)
p4568
I00
sVcontains(do)
p4569
I00
sVcontains(my)
p4570
I00
sVcontains(checking)
p4571
I00
sVcontains(for)
p4572
I00
sVcontains(transfer)
p4573
I00
sVcontains(starting)
p4574
I00
sVcontains(hotel)
p4575
I00
sVcontains(head)
p4576
I00
sVcontains(tell)
p4577
I00
sVcontains(city)
p4578
I00
sVcontains(I)
p4579
I00
sVcontains(an)
p4580
I00
sVcontains(is)
p4581
I00
sVcontains(doing)
p4582
I00
sVcontains(money)
p4583
I00
sVcontains(alexa)
p4584
I00
sVcontains(citi)
p4585
I01
sVcontains(online)
p4586
I01
sVcontains(give)
p4587
I00
sVcontains(detais)
p4588
I00
sVcontains(credit)
p4589
I00
sVcontains(bank)
p4590
I00
sVcontains(book)
p4591
I00
sVcontains(balance)
p4592
I00
sVcontains(want)
p4593
I00
sVcontains(accomodation)
p4594
I00
sVcontains(i)
p4595
I00
sVcontains(confirm)
p4596
I00
sVcontains(letter)
p4597
I00
sVcontains(initiate)
p4598
I00
sVcontains(need)
p4599
I00
sVcontains(to)
p4600
I00
sVcontains(savings)
p4601
I00
sVcontains(get)
p4602
I00
sVcontains(booking)
p4603
I00
sVcontains(statement)
p4604
I00
sVcontains(what)
p4605
I00
sVcontains(document)
p4606
I00
sVcontains(much)
p4607
I00
sVcontains(make)
p4608
I00
sVcontains(help)
p4609
I01
sVcontains('s)
p4610
I00
sVcontains(transaction)
p4611
I00
sVcontains(details)
p4612
I00
sVcontains(nice)
p4613
I00
sVcontains(amount)
p4614
I00
sVcontains(can)
p4615
I00
sS'Start video'
p4616
tp4617
a((dp4618
Vcontains(corporate)
p4619
I00
sVcontains(confirmation)
p4620
I00
sVcontains(of)
p4621
I00
sVcontains(current)
p4622
I00
sVcontains(start)
p4623
I01
sVcontains(proof)
p4624
I00
sVcontains(card)
p4625
I00
sVcontains(me)
p4626
I01
sVcontains(certificate)
p4627
I00
sVcontains(using)
p4628
I00
sVcontains(have)
p4629
I00
sVcontains(how)
p4630
I00
sVcontains(in)
p4631
I00
sVcontains(pay)
p4632
I00
sVcontains(ask)
p4633
I00
sVcontains(a)
p4634
I00
sVcontains(on)
p4635
I00
sVcontains(account)
p4636
I01
sVcontains(payment)
p4637
I00
sVcontains(the)
p4638
I00
sVcontains(use)
p4639
I00
sVcontains(Alexa)
p4640
I00
sVcontains(do)
p4641
I00
sVcontains(my)
p4642
I00
sVcontains(checking)
p4643
I00
sVcontains(for)
p4644
I00
sVcontains(transfer)
p4645
I00
sVcontains(starting)
p4646
I00
sVcontains(hotel)
p4647
I00
sVcontains(head)
p4648
I00
sVcontains(tell)
p4649
I00
sVcontains(city)
p4650
I00
sVcontains(I)
p4651
I00
sVcontains(an)
p4652
I01
sVcontains(is)
p4653
I00
sVcontains(doing)
p4654
I00
sVcontains(money)
p4655
I00
sVcontains(alexa)
p4656
I00
sVcontains(citi)
p4657
I00
sVcontains(online)
p4658
I00
sVcontains(give)
p4659
I00
sVcontains(detais)
p4660
I00
sVcontains(credit)
p4661
I00
sVcontains(bank)
p4662
I00
sVcontains(book)
p4663
I00
sVcontains(balance)
p4664
I00
sVcontains(want)
p4665
I00
sVcontains(accomodation)
p4666
I00
sVcontains(i)
p4667
I00
sVcontains(confirm)
p4668
I00
sVcontains(letter)
p4669
I00
sVcontains(initiate)
p4670
I00
sVcontains(need)
p4671
I00
sVcontains(to)
p4672
I01
sVcontains(savings)
p4673
I00
sVcontains(get)
p4674
I00
sVcontains(booking)
p4675
I00
sVcontains(statement)
p4676
I00
sVcontains(what)
p4677
I00
sVcontains(document)
p4678
I00
sVcontains(much)
p4679
I00
sVcontains(make)
p4680
I00
sVcontains(help)
p4681
I01
sVcontains('s)
p4682
I00
sVcontains(transaction)
p4683
I00
sVcontains(details)
p4684
I00
sVcontains(nice)
p4685
I00
sVcontains(amount)
p4686
I00
sVcontains(can)
p4687
I00
sS'Start video'
p4688
tp4689
a((dp4690
Vcontains(corporate)
p4691
I00
sVcontains(confirmation)
p4692
I00
sVcontains(of)
p4693
I00
sVcontains(current)
p4694
I00
sVcontains(start)
p4695
I00
sVcontains(proof)
p4696
I00
sVcontains(card)
p4697
I00
sVcontains(me)
p4698
I01
sVcontains(certificate)
p4699
I00
sVcontains(using)
p4700
I00
sVcontains(have)
p4701
I00
sVcontains(how)
p4702
I00
sVcontains(in)
p4703
I01
sVcontains(pay)
p4704
I00
sVcontains(ask)
p4705
I00
sVcontains(a)
p4706
I00
sVcontains(on)
p4707
I00
sVcontains(account)
p4708
I00
sVcontains(payment)
p4709
I00
sVcontains(the)
p4710
I00
sVcontains(use)
p4711
I00
sVcontains(Alexa)
p4712
I00
sVcontains(do)
p4713
I00
sVcontains(my)
p4714
I00
sVcontains(checking)
p4715
I00
sVcontains(for)
p4716
I00
sVcontains(transfer)
p4717
I00
sVcontains(starting)
p4718
I00
sVcontains(hotel)
p4719
I00
sVcontains(head)
p4720
I00
sVcontains(tell)
p4721
I00
sVcontains(city)
p4722
I00
sVcontains(I)
p4723
I00
sVcontains(an)
p4724
I01
sVcontains(is)
p4725
I00
sVcontains(doing)
p4726
I01
sVcontains(money)
p4727
I00
sVcontains(alexa)
p4728
I00
sVcontains(citi)
p4729
I00
sVcontains(online)
p4730
I01
sVcontains(give)
p4731
I00
sVcontains(detais)
p4732
I00
sVcontains(credit)
p4733
I00
sVcontains(bank)
p4734
I00
sVcontains(book)
p4735
I00
sVcontains(balance)
p4736
I00
sVcontains(want)
p4737
I00
sVcontains(accomodation)
p4738
I00
sVcontains(i)
p4739
I00
sVcontains(confirm)
p4740
I00
sVcontains(letter)
p4741
I00
sVcontains(initiate)
p4742
I00
sVcontains(need)
p4743
I00
sVcontains(to)
p4744
I00
sVcontains(savings)
p4745
I00
sVcontains(get)
p4746
I00
sVcontains(booking)
p4747
I00
sVcontains(statement)
p4748
I00
sVcontains(what)
p4749
I00
sVcontains(document)
p4750
I00
sVcontains(much)
p4751
I00
sVcontains(make)
p4752
I00
sVcontains(help)
p4753
I01
sVcontains('s)
p4754
I00
sVcontains(transaction)
p4755
I01
sVcontains(details)
p4756
I00
sVcontains(nice)
p4757
I00
sVcontains(amount)
p4758
I00
sVcontains(can)
p4759
I00
sS'Start video'
p4760
tp4761
a((dp4762
Vcontains(corporate)
p4763
I00
sVcontains(confirmation)
p4764
I00
sVcontains(of)
p4765
I00
sVcontains(current)
p4766
I00
sVcontains(start)
p4767
I00
sVcontains(proof)
p4768
I00
sVcontains(card)
p4769
I00
sVcontains(me)
p4770
I00
sVcontains(certificate)
p4771
I00
sVcontains(using)
p4772
I00
sVcontains(have)
p4773
I00
sVcontains(how)
p4774
I01
sVcontains(in)
p4775
I00
sVcontains(pay)
p4776
I00
sVcontains(ask)
p4777
I00
sVcontains(a)
p4778
I00
sVcontains(on)
p4779
I00
sVcontains(account)
p4780
I00
sVcontains(payment)
p4781
I00
sVcontains(the)
p4782
I00
sVcontains(use)
p4783
I01
sVcontains(Alexa)
p4784
I00
sVcontains(do)
p4785
I01
sVcontains(my)
p4786
I00
sVcontains(checking)
p4787
I00
sVcontains(for)
p4788
I00
sVcontains(transfer)
p4789
I00
sVcontains(starting)
p4790
I00
sVcontains(hotel)
p4791
I00
sVcontains(head)
p4792
I00
sVcontains(tell)
p4793
I00
sVcontains(city)
p4794
I00
sVcontains(I)
p4795
I00
sVcontains(an)
p4796
I00
sVcontains(is)
p4797
I00
sVcontains(doing)
p4798
I00
sVcontains(money)
p4799
I00
sVcontains(alexa)
p4800
I00
sVcontains(citi)
p4801
I01
sVcontains(online)
p4802
I01
sVcontains(give)
p4803
I00
sVcontains(detais)
p4804
I00
sVcontains(credit)
p4805
I00
sVcontains(bank)
p4806
I00
sVcontains(book)
p4807
I00
sVcontains(balance)
p4808
I00
sVcontains(want)
p4809
I00
sVcontains(accomodation)
p4810
I00
sVcontains(i)
p4811
I01
sVcontains(confirm)
p4812
I00
sVcontains(letter)
p4813
I00
sVcontains(initiate)
p4814
I00
sVcontains(need)
p4815
I00
sVcontains(to)
p4816
I00
sVcontains(savings)
p4817
I00
sVcontains(get)
p4818
I00
sVcontains(booking)
p4819
I00
sVcontains(statement)
p4820
I00
sVcontains(what)
p4821
I00
sVcontains(document)
p4822
I00
sVcontains(much)
p4823
I00
sVcontains(make)
p4824
I00
sVcontains(help)
p4825
I00
sVcontains('s)
p4826
I00
sVcontains(transaction)
p4827
I00
sVcontains(details)
p4828
I00
sVcontains(nice)
p4829
I00
sVcontains(amount)
p4830
I00
sVcontains(can)
p4831
I00
sS'Start video'
p4832
tp4833
a((dp4834
Vcontains(corporate)
p4835
I00
sVcontains(confirmation)
p4836
I00
sVcontains(of)
p4837
I00
sVcontains(current)
p4838
I00
sVcontains(start)
p4839
I00
sVcontains(proof)
p4840
I00
sVcontains(card)
p4841
I00
sVcontains(me)
p4842
I00
sVcontains(certificate)
p4843
I00
sVcontains(using)
p4844
I00
sVcontains(have)
p4845
I00
sVcontains(how)
p4846
I01
sVcontains(in)
p4847
I00
sVcontains(pay)
p4848
I00
sVcontains(ask)
p4849
I00
sVcontains(a)
p4850
I00
sVcontains(on)
p4851
I00
sVcontains(account)
p4852
I00
sVcontains(payment)
p4853
I00
sVcontains(the)
p4854
I00
sVcontains(use)
p4855
I01
sVcontains(Alexa)
p4856
I00
sVcontains(do)
p4857
I00
sVcontains(my)
p4858
I00
sVcontains(checking)
p4859
I00
sVcontains(for)
p4860
I00
sVcontains(transfer)
p4861
I00
sVcontains(starting)
p4862
I00
sVcontains(hotel)
p4863
I00
sVcontains(head)
p4864
I00
sVcontains(tell)
p4865
I00
sVcontains(city)
p4866
I00
sVcontains(I)
p4867
I00
sVcontains(an)
p4868
I00
sVcontains(is)
p4869
I00
sVcontains(doing)
p4870
I00
sVcontains(money)
p4871
I00
sVcontains(alexa)
p4872
I00
sVcontains(citi)
p4873
I01
sVcontains(online)
p4874
I01
sVcontains(give)
p4875
I00
sVcontains(detais)
p4876
I00
sVcontains(credit)
p4877
I00
sVcontains(bank)
p4878
I00
sVcontains(book)
p4879
I00
sVcontains(balance)
p4880
I00
sVcontains(want)
p4881
I00
sVcontains(accomodation)
p4882
I00
sVcontains(i)
p4883
I00
sVcontains(confirm)
p4884
I00
sVcontains(letter)
p4885
I00
sVcontains(initiate)
p4886
I00
sVcontains(need)
p4887
I00
sVcontains(to)
p4888
I01
sVcontains(savings)
p4889
I00
sVcontains(get)
p4890
I00
sVcontains(booking)
p4891
I00
sVcontains(statement)
p4892
I00
sVcontains(what)
p4893
I00
sVcontains(document)
p4894
I00
sVcontains(much)
p4895
I00
sVcontains(make)
p4896
I00
sVcontains(help)
p4897
I00
sVcontains('s)
p4898
I00
sVcontains(transaction)
p4899
I00
sVcontains(details)
p4900
I00
sVcontains(nice)
p4901
I00
sVcontains(amount)
p4902
I00
sVcontains(can)
p4903
I00
sS'Start video'
p4904
tp4905
a((dp4906
Vcontains(corporate)
p4907
I00
sVcontains(confirmation)
p4908
I00
sVcontains(of)
p4909
I00
sVcontains(current)
p4910
I00
sVcontains(start)
p4911
I00
sVcontains(proof)
p4912
I00
sVcontains(card)
p4913
I00
sVcontains(me)
p4914
I01
sVcontains(certificate)
p4915
I00
sVcontains(using)
p4916
I00
sVcontains(have)
p4917
I00
sVcontains(how)
p4918
I00
sVcontains(in)
p4919
I01
sVcontains(pay)
p4920
I00
sVcontains(ask)
p4921
I00
sVcontains(a)
p4922
I00
sVcontains(on)
p4923
I00
sVcontains(account)
p4924
I01
sVcontains(payment)
p4925
I00
sVcontains(the)
p4926
I00
sVcontains(use)
p4927
I00
sVcontains(Alexa)
p4928
I00
sVcontains(do)
p4929
I00
sVcontains(my)
p4930
I00
sVcontains(checking)
p4931
I00
sVcontains(for)
p4932
I00
sVcontains(transfer)
p4933
I00
sVcontains(starting)
p4934
I01
sVcontains(hotel)
p4935
I00
sVcontains(head)
p4936
I00
sVcontains(tell)
p4937
I00
sVcontains(city)
p4938
I00
sVcontains(I)
p4939
I00
sVcontains(an)
p4940
I01
sVcontains(is)
p4941
I00
sVcontains(doing)
p4942
I00
sVcontains(money)
p4943
I00
sVcontains(alexa)
p4944
I00
sVcontains(citi)
p4945
I00
sVcontains(online)
p4946
I00
sVcontains(give)
p4947
I00
sVcontains(detais)
p4948
I00
sVcontains(credit)
p4949
I00
sVcontains(bank)
p4950
I00
sVcontains(book)
p4951
I00
sVcontains(balance)
p4952
I00
sVcontains(want)
p4953
I00
sVcontains(accomodation)
p4954
I00
sVcontains(i)
p4955
I00
sVcontains(confirm)
p4956
I00
sVcontains(letter)
p4957
I00
sVcontains(initiate)
p4958
I00
sVcontains(need)
p4959
I00
sVcontains(to)
p4960
I00
sVcontains(savings)
p4961
I00
sVcontains(get)
p4962
I00
sVcontains(booking)
p4963
I00
sVcontains(statement)
p4964
I00
sVcontains(what)
p4965
I00
sVcontains(document)
p4966
I00
sVcontains(much)
p4967
I00
sVcontains(make)
p4968
I00
sVcontains(help)
p4969
I01
sVcontains('s)
p4970
I00
sVcontains(transaction)
p4971
I00
sVcontains(details)
p4972
I00
sVcontains(nice)
p4973
I00
sVcontains(amount)
p4974
I00
sVcontains(can)
p4975
I00
sS'Start video'
p4976
tp4977
a((dp4978
Vcontains(corporate)
p4979
I00
sVcontains(confirmation)
p4980
I00
sVcontains(of)
p4981
I00
sVcontains(current)
p4982
I00
sVcontains(start)
p4983
I00
sVcontains(proof)
p4984
I00
sVcontains(card)
p4985
I00
sVcontains(me)
p4986
I00
sVcontains(certificate)
p4987
I00
sVcontains(using)
p4988
I00
sVcontains(have)
p4989
I00
sVcontains(how)
p4990
I00
sVcontains(in)
p4991
I00
sVcontains(pay)
p4992
I00
sVcontains(ask)
p4993
I00
sVcontains(a)
p4994
I00
sVcontains(on)
p4995
I00
sVcontains(account)
p4996
I01
sVcontains(payment)
p4997
I00
sVcontains(the)
p4998
I00
sVcontains(use)
p4999
I00
sVcontains(Alexa)
p5000
I00
sVcontains(do)
p5001
I00
sVcontains(my)
p5002
I01
sVcontains(checking)
p5003
I00
sVcontains(for)
p5004
I00
sVcontains(transfer)
p5005
I00
sVcontains(starting)
p5006
I00
sVcontains(hotel)
p5007
I00
sVcontains(head)
p5008
I00
sVcontains(tell)
p5009
I00
sVcontains(city)
p5010
I00
sVcontains(I)
p5011
I00
sVcontains(an)
p5012
I00
sVcontains(is)
p5013
I00
sVcontains(doing)
p5014
I00
sVcontains(money)
p5015
I00
sVcontains(alexa)
p5016
I00
sVcontains(citi)
p5017
I00
sVcontains(online)
p5018
I00
sVcontains(give)
p5019
I00
sVcontains(detais)
p5020
I00
sVcontains(credit)
p5021
I00
sVcontains(bank)
p5022
I00
sVcontains(book)
p5023
I00
sVcontains(balance)
p5024
I00
sVcontains(want)
p5025
I00
sVcontains(accomodation)
p5026
I00
sVcontains(i)
p5027
I01
sVcontains(confirm)
p5028
I00
sVcontains(letter)
p5029
I00
sVcontains(initiate)
p5030
I00
sVcontains(need)
p5031
I01
sVcontains(to)
p5032
I00
sVcontains(savings)
p5033
I00
sVcontains(get)
p5034
I00
sVcontains(booking)
p5035
I00
sVcontains(statement)
p5036
I01
sVcontains(what)
p5037
I00
sVcontains(document)
p5038
I00
sVcontains(much)
p5039
I00
sVcontains(make)
p5040
I00
sVcontains(help)
p5041
I00
sVcontains('s)
p5042
I00
sVcontains(transaction)
p5043
I00
sVcontains(details)
p5044
I01
sVcontains(nice)
p5045
I00
sVcontains(amount)
p5046
I00
sVcontains(can)
p5047
I00
sS'Start video'
p5048
tp5049
a((dp5050
Vcontains(corporate)
p5051
I00
sVcontains(confirmation)
p5052
I00
sVcontains(of)
p5053
I00
sVcontains(current)
p5054
I00
sVcontains(start)
p5055
I00
sVcontains(proof)
p5056
I00
sVcontains(card)
p5057
I00
sVcontains(me)
p5058
I00
sVcontains(certificate)
p5059
I00
sVcontains(using)
p5060
I00
sVcontains(have)
p5061
I00
sVcontains(how)
p5062
I00
sVcontains(in)
p5063
I00
sVcontains(pay)
p5064
I00
sVcontains(ask)
p5065
I00
sVcontains(a)
p5066
I00
sVcontains(on)
p5067
I00
sVcontains(account)
p5068
I01
sVcontains(payment)
p5069
I00
sVcontains(the)
p5070
I00
sVcontains(use)
p5071
I00
sVcontains(Alexa)
p5072
I00
sVcontains(do)
p5073
I00
sVcontains(my)
p5074
I00
sVcontains(checking)
p5075
I00
sVcontains(for)
p5076
I00
sVcontains(transfer)
p5077
I00
sVcontains(starting)
p5078
I00
sVcontains(hotel)
p5079
I00
sVcontains(head)
p5080
I00
sVcontains(tell)
p5081
I00
sVcontains(city)
p5082
I00
sVcontains(I)
p5083
I00
sVcontains(an)
p5084
I00
sVcontains(is)
p5085
I00
sVcontains(doing)
p5086
I00
sVcontains(money)
p5087
I00
sVcontains(alexa)
p5088
I00
sVcontains(citi)
p5089
I00
sVcontains(online)
p5090
I00
sVcontains(give)
p5091
I00
sVcontains(detais)
p5092
I00
sVcontains(credit)
p5093
I00
sVcontains(bank)
p5094
I00
sVcontains(book)
p5095
I00
sVcontains(balance)
p5096
I00
sVcontains(want)
p5097
I00
sVcontains(accomodation)
p5098
I00
sVcontains(i)
p5099
I00
sVcontains(confirm)
p5100
I00
sVcontains(letter)
p5101
I00
sVcontains(initiate)
p5102
I00
sVcontains(need)
p5103
I00
sVcontains(to)
p5104
I00
sVcontains(savings)
p5105
I00
sVcontains(get)
p5106
I00
sVcontains(booking)
p5107
I00
sVcontains(statement)
p5108
I01
sVcontains(what)
p5109
I00
sVcontains(document)
p5110
I00
sVcontains(much)
p5111
I00
sVcontains(make)
p5112
I00
sVcontains(help)
p5113
I00
sVcontains('s)
p5114
I00
sVcontains(transaction)
p5115
I00
sVcontains(details)
p5116
I00
sVcontains(nice)
p5117
I00
sVcontains(amount)
p5118
I00
sVcontains(can)
p5119
I00
sS'Start video'
p5120
tp5121
a((dp5122
Vcontains(corporate)
p5123
I00
sVcontains(confirmation)
p5124
I00
sVcontains(of)
p5125
I00
sVcontains(current)
p5126
I00
sVcontains(start)
p5127
I00
sVcontains(proof)
p5128
I00
sVcontains(card)
p5129
I00
sVcontains(me)
p5130
I00
sVcontains(certificate)
p5131
I00
sVcontains(using)
p5132
I00
sVcontains(have)
p5133
I00
sVcontains(how)
p5134
I00
sVcontains(in)
p5135
I00
sVcontains(pay)
p5136
I00
sVcontains(ask)
p5137
I00
sVcontains(a)
p5138
I00
sVcontains(on)
p5139
I00
sVcontains(account)
p5140
I00
sVcontains(payment)
p5141
I00
sVcontains(the)
p5142
I00
sVcontains(use)
p5143
I00
sVcontains(Alexa)
p5144
I00
sVcontains(do)
p5145
I00
sVcontains(my)
p5146
I00
sVcontains(checking)
p5147
I00
sVcontains(for)
p5148
I00
sVcontains(transfer)
p5149
I00
sVcontains(starting)
p5150
I00
sVcontains(hotel)
p5151
I00
sVcontains(head)
p5152
I00
sVcontains(tell)
p5153
I00
sVcontains(city)
p5154
I00
sVcontains(I)
p5155
I00
sVcontains(an)
p5156
I00
sVcontains(is)
p5157
I00
sVcontains(doing)
p5158
I00
sVcontains(money)
p5159
I00
sVcontains(alexa)
p5160
I00
sVcontains(citi)
p5161
I00
sVcontains(online)
p5162
I00
sVcontains(give)
p5163
I00
sVcontains(detais)
p5164
I00
sVcontains(credit)
p5165
I00
sVcontains(bank)
p5166
I00
sVcontains(book)
p5167
I00
sVcontains(balance)
p5168
I00
sVcontains(want)
p5169
I00
sVcontains(accomodation)
p5170
I00
sVcontains(i)
p5171
I00
sVcontains(confirm)
p5172
I00
sVcontains(letter)
p5173
I00
sVcontains(initiate)
p5174
I00
sVcontains(need)
p5175
I00
sVcontains(to)
p5176
I00
sVcontains(savings)
p5177
I00
sVcontains(get)
p5178
I00
sVcontains(booking)
p5179
I00
sVcontains(statement)
p5180
I01
sVcontains(what)
p5181
I00
sVcontains(document)
p5182
I00
sVcontains(much)
p5183
I00
sVcontains(make)
p5184
I00
sVcontains(help)
p5185
I00
sVcontains('s)
p5186
I00
sVcontains(transaction)
p5187
I00
sVcontains(details)
p5188
I01
sVcontains(nice)
p5189
I00
sVcontains(amount)
p5190
I00
sVcontains(can)
p5191
I00
sS'Start video'
p5192
tp5193
a((dp5194
Vcontains(corporate)
p5195
I00
sVcontains(confirmation)
p5196
I00
sVcontains(of)
p5197
I00
sVcontains(current)
p5198
I00
sVcontains(start)
p5199
I00
sVcontains(proof)
p5200
I00
sVcontains(card)
p5201
I00
sVcontains(me)
p5202
I00
sVcontains(certificate)
p5203
I00
sVcontains(using)
p5204
I00
sVcontains(have)
p5205
I00
sVcontains(how)
p5206
I01
sVcontains(in)
p5207
I00
sVcontains(pay)
p5208
I00
sVcontains(ask)
p5209
I00
sVcontains(a)
p5210
I00
sVcontains(on)
p5211
I00
sVcontains(account)
p5212
I01
sVcontains(payment)
p5213
I00
sVcontains(the)
p5214
I00
sVcontains(use)
p5215
I00
sVcontains(Alexa)
p5216
I00
sVcontains(do)
p5217
I01
sVcontains(my)
p5218
I00
sVcontains(checking)
p5219
I00
sVcontains(for)
p5220
I00
sVcontains(transfer)
p5221
I00
sVcontains(starting)
p5222
I00
sVcontains(hotel)
p5223
I00
sVcontains(head)
p5224
I00
sVcontains(tell)
p5225
I00
sVcontains(city)
p5226
I00
sVcontains(I)
p5227
I00
sVcontains(an)
p5228
I00
sVcontains(is)
p5229
I00
sVcontains(doing)
p5230
I00
sVcontains(money)
p5231
I00
sVcontains(alexa)
p5232
I00
sVcontains(citi)
p5233
I00
sVcontains(online)
p5234
I00
sVcontains(give)
p5235
I00
sVcontains(detais)
p5236
I00
sVcontains(credit)
p5237
I00
sVcontains(bank)
p5238
I00
sVcontains(book)
p5239
I00
sVcontains(balance)
p5240
I00
sVcontains(want)
p5241
I00
sVcontains(accomodation)
p5242
I00
sVcontains(i)
p5243
I01
sVcontains(confirm)
p5244
I00
sVcontains(letter)
p5245
I00
sVcontains(initiate)
p5246
I00
sVcontains(need)
p5247
I00
sVcontains(to)
p5248
I00
sVcontains(savings)
p5249
I00
sVcontains(get)
p5250
I01
sVcontains(booking)
p5251
I00
sVcontains(statement)
p5252
I01
sVcontains(what)
p5253
I00
sVcontains(document)
p5254
I00
sVcontains(much)
p5255
I00
sVcontains(make)
p5256
I00
sVcontains(help)
p5257
I00
sVcontains('s)
p5258
I00
sVcontains(transaction)
p5259
I00
sVcontains(details)
p5260
I01
sVcontains(nice)
p5261
I00
sVcontains(amount)
p5262
I00
sVcontains(can)
p5263
I00
sS'Start video'
p5264
tp5265
a((dp5266
Vcontains(corporate)
p5267
I00
sVcontains(confirmation)
p5268
I00
sVcontains(of)
p5269
I00
sVcontains(current)
p5270
I00
sVcontains(start)
p5271
I00
sVcontains(proof)
p5272
I00
sVcontains(card)
p5273
I00
sVcontains(me)
p5274
I00
sVcontains(certificate)
p5275
I00
sVcontains(using)
p5276
I00
sVcontains(have)
p5277
I00
sVcontains(how)
p5278
I00
sVcontains(in)
p5279
I00
sVcontains(pay)
p5280
I00
sVcontains(ask)
p5281
I00
sVcontains(a)
p5282
I00
sVcontains(on)
p5283
I00
sVcontains(account)
p5284
I00
sVcontains(payment)
p5285
I00
sVcontains(the)
p5286
I00
sVcontains(use)
p5287
I00
sVcontains(Alexa)
p5288
I00
sVcontains(do)
p5289
I00
sVcontains(my)
p5290
I00
sVcontains(checking)
p5291
I00
sVcontains(for)
p5292
I00
sVcontains(transfer)
p5293
I00
sVcontains(starting)
p5294
I00
sVcontains(hotel)
p5295
I00
sVcontains(head)
p5296
I00
sVcontains(tell)
p5297
I00
sVcontains(city)
p5298
I00
sVcontains(I)
p5299
I00
sVcontains(an)
p5300
I00
sVcontains(is)
p5301
I00
sVcontains(doing)
p5302
I00
sVcontains(money)
p5303
I00
sVcontains(alexa)
p5304
I00
sVcontains(citi)
p5305
I00
sVcontains(online)
p5306
I00
sVcontains(give)
p5307
I00
sVcontains(detais)
p5308
I00
sVcontains(credit)
p5309
I00
sVcontains(bank)
p5310
I01
sVcontains(book)
p5311
I00
sVcontains(balance)
p5312
I00
sVcontains(want)
p5313
I00
sVcontains(accomodation)
p5314
I00
sVcontains(i)
p5315
I00
sVcontains(confirm)
p5316
I00
sVcontains(letter)
p5317
I00
sVcontains(initiate)
p5318
I00
sVcontains(need)
p5319
I00
sVcontains(to)
p5320
I00
sVcontains(savings)
p5321
I00
sVcontains(get)
p5322
I00
sVcontains(booking)
p5323
I00
sVcontains(statement)
p5324
I01
sVcontains(what)
p5325
I00
sVcontains(document)
p5326
I00
sVcontains(much)
p5327
I00
sVcontains(make)
p5328
I00
sVcontains(help)
p5329
I00
sVcontains('s)
p5330
I00
sVcontains(transaction)
p5331
I00
sVcontains(details)
p5332
I00
sVcontains(nice)
p5333
I00
sVcontains(amount)
p5334
I00
sVcontains(can)
p5335
I00
sS'Start video'
p5336
tp5337
a((dp5338
Vcontains(corporate)
p5339
I00
sVcontains(confirmation)
p5340
I00
sVcontains(of)
p5341
I00
sVcontains(current)
p5342
I00
sVcontains(start)
p5343
I00
sVcontains(proof)
p5344
I00
sVcontains(card)
p5345
I00
sVcontains(me)
p5346
I00
sVcontains(certificate)
p5347
I00
sVcontains(using)
p5348
I00
sVcontains(have)
p5349
I00
sVcontains(how)
p5350
I00
sVcontains(in)
p5351
I00
sVcontains(pay)
p5352
I00
sVcontains(ask)
p5353
I00
sVcontains(a)
p5354
I00
sVcontains(on)
p5355
I00
sVcontains(account)
p5356
I01
sVcontains(payment)
p5357
I00
sVcontains(the)
p5358
I00
sVcontains(use)
p5359
I00
sVcontains(Alexa)
p5360
I00
sVcontains(do)
p5361
I00
sVcontains(my)
p5362
I01
sVcontains(checking)
p5363
I00
sVcontains(for)
p5364
I00
sVcontains(transfer)
p5365
I00
sVcontains(starting)
p5366
I00
sVcontains(hotel)
p5367
I00
sVcontains(head)
p5368
I00
sVcontains(tell)
p5369
I00
sVcontains(city)
p5370
I00
sVcontains(I)
p5371
I00
sVcontains(an)
p5372
I00
sVcontains(is)
p5373
I00
sVcontains(doing)
p5374
I00
sVcontains(money)
p5375
I00
sVcontains(alexa)
p5376
I00
sVcontains(citi)
p5377
I00
sVcontains(online)
p5378
I00
sVcontains(give)
p5379
I00
sVcontains(detais)
p5380
I00
sVcontains(credit)
p5381
I00
sVcontains(bank)
p5382
I00
sVcontains(book)
p5383
I00
sVcontains(balance)
p5384
I00
sVcontains(want)
p5385
I00
sVcontains(accomodation)
p5386
I00
sVcontains(i)
p5387
I01
sVcontains(confirm)
p5388
I00
sVcontains(letter)
p5389
I00
sVcontains(initiate)
p5390
I00
sVcontains(need)
p5391
I01
sVcontains(to)
p5392
I00
sVcontains(savings)
p5393
I00
sVcontains(get)
p5394
I00
sVcontains(booking)
p5395
I00
sVcontains(statement)
p5396
I01
sVcontains(what)
p5397
I00
sVcontains(document)
p5398
I00
sVcontains(much)
p5399
I00
sVcontains(make)
p5400
I00
sVcontains(help)
p5401
I00
sVcontains('s)
p5402
I00
sVcontains(transaction)
p5403
I00
sVcontains(details)
p5404
I00
sVcontains(nice)
p5405
I00
sVcontains(amount)
p5406
I00
sVcontains(can)
p5407
I00
sS'Start video'
p5408
tp5409
asS'train_set'
p5410
(lp5411
(S'Alexa ask city bank how much money I have in my savings.\n'
p5412
g80
tp5413
a(S"Alexa ask city bank what's my checking account balance.\n"
p5414
g152
tp5415
a(S'my savings account balance\n'
p5416
g224
tp5417
a(S'tell me my savings account balance\n'
p5418
g296
tp5419
a(S'tell me my savings balance\n'
p5420
g368
tp5421
a(S'my current account balance\n'
p5422
g440
tp5423
a(S'tell me my current account balance\n'
p5424
g512
tp5425
a(S'tell me my current balance\n'
p5426
g584
tp5427
a(S'my checking account balance\n'
p5428
g656
tp5429
a(S'tell me my checking account balance\n'
p5430
g728
tp5431
a(S'tell me my checking balance\n'
p5432
g800
tp5433
a(S'Alexa ask city bank what is my checking account balance.\n'
p5434
g872
tp5435
a(S"alexa ask city bank what's the balance on my credit card\n"
p5436
g944
tp5437
a(S"what's the balance on my credit card\n"
p5438
g1016
tp5439
a(S'what is the balance on my credit card\n'
p5440
g1088
tp5441
a(S'my credit card balance\n'
p5442
g1160
tp5443
a(S'what is the balance on my credit card\n'
p5444
g1232
tp5445
a(S'savings balance\n'
p5446
g1304
tp5447
a(S'credit balance\n'
p5448
g1376
tp5449
a(S'credit card balance\n'
p5450
g1448
tp5451
a(S'savings balance\n'
p5452
g1520
tp5453
a(S'transfer amount to\n'
p5454
g1592
tp5455
a(S'I want to transfer amount to\n'
p5456
g1664
tp5457
a(S'i want to make a payment\n'
p5458
g1736
tp5459
a(S'make payment\n'
p5460
g1808
tp5461
a(S'initiate a payment\n'
p5462
g1880
tp5463
a(S'do a payment transfer\n'
p5464
g1952
tp5465
a(S'pay money\n'
p5466
g2024
tp5467
a(S'I want to pay money\n'
p5468
g2096
tp5469
a(S'money payment\n'
p5470
g2168
tp5471
a(S'i want to initiate a payment\n'
p5472
g2240
tp5473
a(S'transfer money\n'
p5474
g2312
tp5475
a(S'I want to do corporate transfer\n'
p5476
g2384
tp5477
a(S'I want to do transaction\n'
p5478
g2456
tp5479
a(S'make a transaction\n'
p5480
g2528
tp5481
a(S'do a transaction for me\n'
p5482
g2600
tp5483
a(S'I want to do corporate transaction\n'
p5484
g2672
tp5485
a(S'corporate transaction\n'
p5486
g2744
tp5487
a(S'make a corporate transaction\n'
p5488
g2816
tp5489
a(S'initiate corporate transaction\n'
p5490
g2888
tp5491
a(S'book hotel\n'
p5492
g2960
tp5493
a(S'i want to make a hotel booking\n'
p5494
g3032
tp5495
a(S'book a hotel for me\n'
p5496
g3104
tp5497
a(S'book accomodation\n'
p5498
g3176
tp5499
a(S'help me in booking hotel\n'
p5500
g3248
tp5501
a(S'book a nice hotel\n'
p5502
g3320
tp5503
a(S'can i have a proof of my account\n'
p5504
g3392
tp5505
a(S'can i have an account proof\n'
p5506
g3464
tp5507
a(S'can i get a proof document on my account\n'
p5508
g3536
tp5509
a(S'i want account proof\n'
p5510
g3608
tp5511
a(S'account proof\n'
p5512
g3680
tp5513
a(S'give proof of account\n'
p5514
g3752
tp5515
a(S'account confirmation\n'
p5516
g3824
tp5517
a(S'i want a confirmation document on my account\n'
p5518
g3896
tp5519
a(S'give me a account confirmation document\n'
p5520
g3968
tp5521
a(S'confirm my account\n'
p5522
g4040
tp5523
a(S'i want bank account detais on citi letter head\n'
p5524
g4112
tp5525
a(S'i want bank account details certificate\n'
p5526
g4184
tp5527
a(S'bank account details on citi letter head\n'
p5528
g4256
tp5529
a(S'bank account details certificate\n'
p5530
g4328
tp5531
a(S'how do i start an online transaction\n'
p5532
g4400
tp5533
a(S'i want help in citi bank online\n'
p5534
g4472
tp5535
a(S'how do i start an account\n'
p5536
g4544
tp5537
a(S'help me in using citi online\n'
p5538
g4616
tp5539
a(S'help me to start an account\n'
p5540
g4688
tp5541
a(S'help me in doing an online transaction\n'
p5542
g4760
tp5543
a(S'how do i use citi online\n'
p5544
g4832
tp5545
a(S'how to use citi online\n'
p5546
g4904
tp5547
a(S'help me in starting an account\n'
p5548
g4976
tp5549
a(S'i need my account statement details\n'
p5550
g5048
tp5551
a(S'account statement\n'
p5552
g5120
tp5553
a(S'statement details\n'
p5554
g5192
tp5555
a(S'how do i get account statement details\n'
p5556
g5264
tp5557
a(S'bank statement\n'
p5558
g5336
tp5559
a(S'i need my account statement\n'
p5560
g5408
tp5561
asS'feature_extractor'
p5562
ctextblob.classifiers
basic_extractor
p5563
sb.