(lp0
(dp1
S'status'
p2
S'Success'
p3
sS'beneficiaryName'
p4
S'ABC Holdings'
p5
sS'account'
p6
S'32103012630000000055203221'
p7
sS'no'
p8
I1
sS'referenceNo'
p9
S'456789987654'
p10
sS'amount'
p11
S'1000'
p12
sS'date'
p13
S'12/09/2016 12:40:50'
p14
sa(dp15
g2
S'Success'
p16
sg4
S'ABC Holdings'
p17
sg6
S'32103012630000000055203221'
p18
sg8
I2
sg9
S'234567899299'
p19
sg11
S'700'
p20
sg13
S'12/08/2016 02:40:50'
p21
sa(dp22
g2
S'Success'
p23
sg4
S'ABC Holdings'
p24
sg6
S'32103012630000000055203221'
p25
sg8
I3
sg9
S'156789987653'
p26
sg11
S'743'
p27
sg13
S'27/11/2016 12:15:02'
p28
sa.