ccopy_reg
_reconstructor
p0
(ctextblob.classifiers
NaiveBayesClassifier
p1
c__builtin__
object
p2
Ntp3
Rp4
(dp5
S'format_kwargs'
p6
(dp7
sS'train_features'
p8
(lp9
((dp10
Vcontains(corporate)
p11
I00
sVcontains(confirmation)
p12
I00
sVcontains(of)
p13
I00
sVcontains(current)
p14
I00
sVcontains(start)
p15
I00
sVcontains(proof)
p16
I00
sVcontains(card)
p17
I00
sVcontains(me)
p18
I00
sVcontains(using)
p19
I00
sVcontains(have)
p20
I01
sVcontains(how)
p21
I01
sVcontains(in)
p22
I01
sVcontains(pay)
p23
I00
sVcontains(ask)
p24
I01
sVcontains(a)
p25
I00
sVcontains(on)
p26
I00
sVcontains(account)
p27
I00
sVcontains(payment)
p28
I00
sVcontains(the)
p29
I00
sVcontains(use)
p30
I00
sVcontains(Alexa)
p31
I01
sVcontains(do)
p32
I00
sVcontains(my)
p33
I01
sVcontains(checking)
p34
I00
sVcontains(for)
p35
I00
sVcontains(transfer)
p36
I00
sVcontains(starting)
p37
I00
sVcontains(hotel)
p38
I00
sVcontains(book)
p39
I00
sVcontains(tell)
p40
I00
sVcontains(city)
p41
I01
sVcontains(I)
p42
I01
sVcontains(an)
p43
I00
sVcontains(is)
p44
I00
sVcontains(doing)
p45
I00
sVcontains(money)
p46
I01
sVcontains(alexa)
p47
I00
sVcontains(citi)
p48
I00
sVcontains(online)
p49
I00
sVcontains(give)
p50
I00
sVcontains(statement)
p51
I00
sVcontains(credit)
p52
I00
sVcontains(balance)
p53
I00
sVcontains(want)
p54
I00
sVcontains(accomodation)
p55
I00
sVcontains(i)
p56
I00
sVcontains(confirm)
p57
I00
sVcontains(bank)
p58
I01
sVcontains(initiate)
p59
I00
sVcontains(need)
p60
I00
sVcontains(to)
p61
I00
sVcontains(savings)
p62
I01
sVcontains(get)
p63
I00
sVcontains(booking)
p64
I00
sVcontains(what)
p65
I00
sVcontains(document)
p66
I00
sVcontains(much)
p67
I01
sVcontains(make)
p68
I00
sVcontains(help)
p69
I00
sVcontains('s)
p70
I00
sVcontains(transaction)
p71
I00
sVcontains(details)
p72
I00
sVcontains(nice)
p73
I00
sVcontains(amount)
p74
I00
sVcontains(can)
p75
I00
sS'Account intent'
p76
tp77
a((dp78
Vcontains(corporate)
p79
I00
sVcontains(confirmation)
p80
I00
sVcontains(of)
p81
I00
sVcontains(current)
p82
I00
sVcontains(start)
p83
I00
sVcontains(proof)
p84
I00
sVcontains(card)
p85
I00
sVcontains(me)
p86
I00
sVcontains(using)
p87
I00
sVcontains(have)
p88
I00
sVcontains(how)
p89
I00
sVcontains(in)
p90
I00
sVcontains(pay)
p91
I00
sVcontains(ask)
p92
I01
sVcontains(a)
p93
I00
sVcontains(on)
p94
I00
sVcontains(account)
p95
I01
sVcontains(payment)
p96
I00
sVcontains(the)
p97
I00
sVcontains(use)
p98
I00
sVcontains(Alexa)
p99
I01
sVcontains(do)
p100
I00
sVcontains(my)
p101
I01
sVcontains(checking)
p102
I01
sVcontains(for)
p103
I00
sVcontains(transfer)
p104
I00
sVcontains(starting)
p105
I00
sVcontains(hotel)
p106
I00
sVcontains(book)
p107
I00
sVcontains(tell)
p108
I00
sVcontains(city)
p109
I01
sVcontains(I)
p110
I00
sVcontains(an)
p111
I00
sVcontains(is)
p112
I00
sVcontains(doing)
p113
I00
sVcontains(money)
p114
I00
sVcontains(alexa)
p115
I00
sVcontains(citi)
p116
I00
sVcontains(online)
p117
I00
sVcontains(give)
p118
I00
sVcontains(statement)
p119
I00
sVcontains(credit)
p120
I00
sVcontains(balance)
p121
I01
sVcontains(want)
p122
I00
sVcontains(accomodation)
p123
I00
sVcontains(i)
p124
I00
sVcontains(confirm)
p125
I00
sVcontains(bank)
p126
I01
sVcontains(initiate)
p127
I00
sVcontains(need)
p128
I00
sVcontains(to)
p129
I00
sVcontains(savings)
p130
I00
sVcontains(get)
p131
I00
sVcontains(booking)
p132
I00
sVcontains(what)
p133
I01
sVcontains(document)
p134
I00
sVcontains(much)
p135
I00
sVcontains(make)
p136
I00
sVcontains(help)
p137
I00
sVcontains('s)
p138
I00
sVcontains(transaction)
p139
I00
sVcontains(details)
p140
I00
sVcontains(nice)
p141
I00
sVcontains(amount)
p142
I00
sVcontains(can)
p143
I00
sS'Account intent'
p144
tp145
a((dp146
Vcontains(corporate)
p147
I00
sVcontains(confirmation)
p148
I00
sVcontains(of)
p149
I00
sVcontains(current)
p150
I00
sVcontains(start)
p151
I00
sVcontains(proof)
p152
I00
sVcontains(card)
p153
I00
sVcontains(me)
p154
I00
sVcontains(using)
p155
I00
sVcontains(have)
p156
I00
sVcontains(how)
p157
I00
sVcontains(in)
p158
I00
sVcontains(pay)
p159
I00
sVcontains(ask)
p160
I00
sVcontains(a)
p161
I00
sVcontains(on)
p162
I00
sVcontains(account)
p163
I01
sVcontains(payment)
p164
I00
sVcontains(the)
p165
I00
sVcontains(use)
p166
I00
sVcontains(Alexa)
p167
I00
sVcontains(do)
p168
I00
sVcontains(my)
p169
I01
sVcontains(checking)
p170
I00
sVcontains(for)
p171
I00
sVcontains(transfer)
p172
I00
sVcontains(starting)
p173
I00
sVcontains(hotel)
p174
I00
sVcontains(book)
p175
I00
sVcontains(tell)
p176
I00
sVcontains(city)
p177
I00
sVcontains(I)
p178
I00
sVcontains(an)
p179
I00
sVcontains(is)
p180
I00
sVcontains(doing)
p181
I00
sVcontains(money)
p182
I00
sVcontains(alexa)
p183
I00
sVcontains(citi)
p184
I00
sVcontains(online)
p185
I00
sVcontains(give)
p186
I00
sVcontains(statement)
p187
I00
sVcontains(credit)
p188
I00
sVcontains(balance)
p189
I01
sVcontains(want)
p190
I00
sVcontains(accomodation)
p191
I00
sVcontains(i)
p192
I00
sVcontains(confirm)
p193
I00
sVcontains(bank)
p194
I00
sVcontains(initiate)
p195
I00
sVcontains(need)
p196
I00
sVcontains(to)
p197
I00
sVcontains(savings)
p198
I01
sVcontains(get)
p199
I00
sVcontains(booking)
p200
I00
sVcontains(what)
p201
I00
sVcontains(document)
p202
I00
sVcontains(much)
p203
I00
sVcontains(make)
p204
I00
sVcontains(help)
p205
I00
sVcontains('s)
p206
I00
sVcontains(transaction)
p207
I00
sVcontains(details)
p208
I00
sVcontains(nice)
p209
I00
sVcontains(amount)
p210
I00
sVcontains(can)
p211
I00
sS'Account intent'
p212
tp213
a((dp214
Vcontains(corporate)
p215
I00
sVcontains(confirmation)
p216
I00
sVcontains(of)
p217
I00
sVcontains(current)
p218
I00
sVcontains(start)
p219
I00
sVcontains(proof)
p220
I00
sVcontains(card)
p221
I00
sVcontains(me)
p222
I01
sVcontains(using)
p223
I00
sVcontains(have)
p224
I00
sVcontains(how)
p225
I00
sVcontains(in)
p226
I00
sVcontains(pay)
p227
I00
sVcontains(ask)
p228
I00
sVcontains(a)
p229
I00
sVcontains(on)
p230
I00
sVcontains(account)
p231
I01
sVcontains(payment)
p232
I00
sVcontains(the)
p233
I00
sVcontains(use)
p234
I00
sVcontains(Alexa)
p235
I00
sVcontains(do)
p236
I00
sVcontains(my)
p237
I01
sVcontains(checking)
p238
I00
sVcontains(for)
p239
I00
sVcontains(transfer)
p240
I00
sVcontains(starting)
p241
I00
sVcontains(hotel)
p242
I00
sVcontains(book)
p243
I00
sVcontains(tell)
p244
I01
sVcontains(city)
p245
I00
sVcontains(I)
p246
I00
sVcontains(an)
p247
I00
sVcontains(is)
p248
I00
sVcontains(doing)
p249
I00
sVcontains(money)
p250
I00
sVcontains(alexa)
p251
I00
sVcontains(citi)
p252
I00
sVcontains(online)
p253
I00
sVcontains(give)
p254
I00
sVcontains(statement)
p255
I00
sVcontains(credit)
p256
I00
sVcontains(balance)
p257
I01
sVcontains(want)
p258
I00
sVcontains(accomodation)
p259
I00
sVcontains(i)
p260
I00
sVcontains(confirm)
p261
I00
sVcontains(bank)
p262
I00
sVcontains(initiate)
p263
I00
sVcontains(need)
p264
I00
sVcontains(to)
p265
I00
sVcontains(savings)
p266
I01
sVcontains(get)
p267
I00
sVcontains(booking)
p268
I00
sVcontains(what)
p269
I00
sVcontains(document)
p270
I00
sVcontains(much)
p271
I00
sVcontains(make)
p272
I00
sVcontains(help)
p273
I00
sVcontains('s)
p274
I00
sVcontains(transaction)
p275
I00
sVcontains(details)
p276
I00
sVcontains(nice)
p277
I00
sVcontains(amount)
p278
I00
sVcontains(can)
p279
I00
sS'Account intent'
p280
tp281
a((dp282
Vcontains(corporate)
p283
I00
sVcontains(confirmation)
p284
I00
sVcontains(of)
p285
I00
sVcontains(current)
p286
I00
sVcontains(start)
p287
I00
sVcontains(proof)
p288
I00
sVcontains(card)
p289
I00
sVcontains(me)
p290
I01
sVcontains(using)
p291
I00
sVcontains(have)
p292
I00
sVcontains(how)
p293
I00
sVcontains(in)
p294
I00
sVcontains(pay)
p295
I00
sVcontains(ask)
p296
I00
sVcontains(a)
p297
I00
sVcontains(on)
p298
I00
sVcontains(account)
p299
I00
sVcontains(payment)
p300
I00
sVcontains(the)
p301
I00
sVcontains(use)
p302
I00
sVcontains(Alexa)
p303
I00
sVcontains(do)
p304
I00
sVcontains(my)
p305
I01
sVcontains(checking)
p306
I00
sVcontains(for)
p307
I00
sVcontains(transfer)
p308
I00
sVcontains(starting)
p309
I00
sVcontains(hotel)
p310
I00
sVcontains(book)
p311
I00
sVcontains(tell)
p312
I01
sVcontains(city)
p313
I00
sVcontains(I)
p314
I00
sVcontains(an)
p315
I00
sVcontains(is)
p316
I00
sVcontains(doing)
p317
I00
sVcontains(money)
p318
I00
sVcontains(alexa)
p319
I00
sVcontains(citi)
p320
I00
sVcontains(online)
p321
I00
sVcontains(give)
p322
I00
sVcontains(statement)
p323
I00
sVcontains(credit)
p324
I00
sVcontains(balance)
p325
I01
sVcontains(want)
p326
I00
sVcontains(accomodation)
p327
I00
sVcontains(i)
p328
I00
sVcontains(confirm)
p329
I00
sVcontains(bank)
p330
I00
sVcontains(initiate)
p331
I00
sVcontains(need)
p332
I00
sVcontains(to)
p333
I00
sVcontains(savings)
p334
I01
sVcontains(get)
p335
I00
sVcontains(booking)
p336
I00
sVcontains(what)
p337
I00
sVcontains(document)
p338
I00
sVcontains(much)
p339
I00
sVcontains(make)
p340
I00
sVcontains(help)
p341
I00
sVcontains('s)
p342
I00
sVcontains(transaction)
p343
I00
sVcontains(details)
p344
I00
sVcontains(nice)
p345
I00
sVcontains(amount)
p346
I00
sVcontains(can)
p347
I00
sS'Account intent'
p348
tp349
a((dp350
Vcontains(corporate)
p351
I00
sVcontains(confirmation)
p352
I00
sVcontains(of)
p353
I00
sVcontains(current)
p354
I01
sVcontains(start)
p355
I00
sVcontains(proof)
p356
I00
sVcontains(card)
p357
I00
sVcontains(me)
p358
I00
sVcontains(using)
p359
I00
sVcontains(have)
p360
I00
sVcontains(how)
p361
I00
sVcontains(in)
p362
I00
sVcontains(pay)
p363
I00
sVcontains(ask)
p364
I00
sVcontains(a)
p365
I00
sVcontains(on)
p366
I00
sVcontains(account)
p367
I01
sVcontains(payment)
p368
I00
sVcontains(the)
p369
I00
sVcontains(use)
p370
I00
sVcontains(Alexa)
p371
I00
sVcontains(do)
p372
I00
sVcontains(my)
p373
I01
sVcontains(checking)
p374
I00
sVcontains(for)
p375
I00
sVcontains(transfer)
p376
I00
sVcontains(starting)
p377
I00
sVcontains(hotel)
p378
I00
sVcontains(book)
p379
I00
sVcontains(tell)
p380
I00
sVcontains(city)
p381
I00
sVcontains(I)
p382
I00
sVcontains(an)
p383
I00
sVcontains(is)
p384
I00
sVcontains(doing)
p385
I00
sVcontains(money)
p386
I00
sVcontains(alexa)
p387
I00
sVcontains(citi)
p388
I00
sVcontains(online)
p389
I00
sVcontains(give)
p390
I00
sVcontains(statement)
p391
I00
sVcontains(credit)
p392
I00
sVcontains(balance)
p393
I01
sVcontains(want)
p394
I00
sVcontains(accomodation)
p395
I00
sVcontains(i)
p396
I00
sVcontains(confirm)
p397
I00
sVcontains(bank)
p398
I00
sVcontains(initiate)
p399
I00
sVcontains(need)
p400
I00
sVcontains(to)
p401
I00
sVcontains(savings)
p402
I00
sVcontains(get)
p403
I00
sVcontains(booking)
p404
I00
sVcontains(what)
p405
I00
sVcontains(document)
p406
I00
sVcontains(much)
p407
I00
sVcontains(make)
p408
I00
sVcontains(help)
p409
I00
sVcontains('s)
p410
I00
sVcontains(transaction)
p411
I00
sVcontains(details)
p412
I00
sVcontains(nice)
p413
I00
sVcontains(amount)
p414
I00
sVcontains(can)
p415
I00
sS'Account intent'
p416
tp417
a((dp418
Vcontains(corporate)
p419
I00
sVcontains(confirmation)
p420
I00
sVcontains(of)
p421
I00
sVcontains(current)
p422
I01
sVcontains(start)
p423
I00
sVcontains(proof)
p424
I00
sVcontains(card)
p425
I00
sVcontains(me)
p426
I01
sVcontains(using)
p427
I00
sVcontains(have)
p428
I00
sVcontains(how)
p429
I00
sVcontains(in)
p430
I00
sVcontains(pay)
p431
I00
sVcontains(ask)
p432
I00
sVcontains(a)
p433
I00
sVcontains(on)
p434
I00
sVcontains(account)
p435
I01
sVcontains(payment)
p436
I00
sVcontains(the)
p437
I00
sVcontains(use)
p438
I00
sVcontains(Alexa)
p439
I00
sVcontains(do)
p440
I00
sVcontains(my)
p441
I01
sVcontains(checking)
p442
I00
sVcontains(for)
p443
I00
sVcontains(transfer)
p444
I00
sVcontains(starting)
p445
I00
sVcontains(hotel)
p446
I00
sVcontains(book)
p447
I00
sVcontains(tell)
p448
I01
sVcontains(city)
p449
I00
sVcontains(I)
p450
I00
sVcontains(an)
p451
I00
sVcontains(is)
p452
I00
sVcontains(doing)
p453
I00
sVcontains(money)
p454
I00
sVcontains(alexa)
p455
I00
sVcontains(citi)
p456
I00
sVcontains(online)
p457
I00
sVcontains(give)
p458
I00
sVcontains(statement)
p459
I00
sVcontains(credit)
p460
I00
sVcontains(balance)
p461
I01
sVcontains(want)
p462
I00
sVcontains(accomodation)
p463
I00
sVcontains(i)
p464
I00
sVcontains(confirm)
p465
I00
sVcontains(bank)
p466
I00
sVcontains(initiate)
p467
I00
sVcontains(need)
p468
I00
sVcontains(to)
p469
I00
sVcontains(savings)
p470
I00
sVcontains(get)
p471
I00
sVcontains(booking)
p472
I00
sVcontains(what)
p473
I00
sVcontains(document)
p474
I00
sVcontains(much)
p475
I00
sVcontains(make)
p476
I00
sVcontains(help)
p477
I00
sVcontains('s)
p478
I00
sVcontains(transaction)
p479
I00
sVcontains(details)
p480
I00
sVcontains(nice)
p481
I00
sVcontains(amount)
p482
I00
sVcontains(can)
p483
I00
sS'Account intent'
p484
tp485
a((dp486
Vcontains(corporate)
p487
I00
sVcontains(confirmation)
p488
I00
sVcontains(of)
p489
I00
sVcontains(current)
p490
I01
sVcontains(start)
p491
I00
sVcontains(proof)
p492
I00
sVcontains(card)
p493
I00
sVcontains(me)
p494
I01
sVcontains(using)
p495
I00
sVcontains(have)
p496
I00
sVcontains(how)
p497
I00
sVcontains(in)
p498
I00
sVcontains(pay)
p499
I00
sVcontains(ask)
p500
I00
sVcontains(a)
p501
I00
sVcontains(on)
p502
I00
sVcontains(account)
p503
I00
sVcontains(payment)
p504
I00
sVcontains(the)
p505
I00
sVcontains(use)
p506
I00
sVcontains(Alexa)
p507
I00
sVcontains(do)
p508
I00
sVcontains(my)
p509
I01
sVcontains(checking)
p510
I00
sVcontains(for)
p511
I00
sVcontains(transfer)
p512
I00
sVcontains(starting)
p513
I00
sVcontains(hotel)
p514
I00
sVcontains(book)
p515
I00
sVcontains(tell)
p516
I01
sVcontains(city)
p517
I00
sVcontains(I)
p518
I00
sVcontains(an)
p519
I00
sVcontains(is)
p520
I00
sVcontains(doing)
p521
I00
sVcontains(money)
p522
I00
sVcontains(alexa)
p523
I00
sVcontains(citi)
p524
I00
sVcontains(online)
p525
I00
sVcontains(give)
p526
I00
sVcontains(statement)
p527
I00
sVcontains(credit)
p528
I00
sVcontains(balance)
p529
I01
sVcontains(want)
p530
I00
sVcontains(accomodation)
p531
I00
sVcontains(i)
p532
I00
sVcontains(confirm)
p533
I00
sVcontains(bank)
p534
I00
sVcontains(initiate)
p535
I00
sVcontains(need)
p536
I00
sVcontains(to)
p537
I00
sVcontains(savings)
p538
I00
sVcontains(get)
p539
I00
sVcontains(booking)
p540
I00
sVcontains(what)
p541
I00
sVcontains(document)
p542
I00
sVcontains(much)
p543
I00
sVcontains(make)
p544
I00
sVcontains(help)
p545
I00
sVcontains('s)
p546
I00
sVcontains(transaction)
p547
I00
sVcontains(details)
p548
I00
sVcontains(nice)
p549
I00
sVcontains(amount)
p550
I00
sVcontains(can)
p551
I00
sS'Account intent'
p552
tp553
a((dp554
Vcontains(corporate)
p555
I00
sVcontains(confirmation)
p556
I00
sVcontains(of)
p557
I00
sVcontains(current)
p558
I00
sVcontains(start)
p559
I00
sVcontains(proof)
p560
I00
sVcontains(card)
p561
I00
sVcontains(me)
p562
I00
sVcontains(using)
p563
I00
sVcontains(have)
p564
I00
sVcontains(how)
p565
I00
sVcontains(in)
p566
I00
sVcontains(pay)
p567
I00
sVcontains(ask)
p568
I00
sVcontains(a)
p569
I00
sVcontains(on)
p570
I00
sVcontains(account)
p571
I01
sVcontains(payment)
p572
I00
sVcontains(the)
p573
I00
sVcontains(use)
p574
I00
sVcontains(Alexa)
p575
I00
sVcontains(do)
p576
I00
sVcontains(my)
p577
I01
sVcontains(checking)
p578
I01
sVcontains(for)
p579
I00
sVcontains(transfer)
p580
I00
sVcontains(starting)
p581
I00
sVcontains(hotel)
p582
I00
sVcontains(book)
p583
I00
sVcontains(tell)
p584
I00
sVcontains(city)
p585
I00
sVcontains(I)
p586
I00
sVcontains(an)
p587
I00
sVcontains(is)
p588
I00
sVcontains(doing)
p589
I00
sVcontains(money)
p590
I00
sVcontains(alexa)
p591
I00
sVcontains(citi)
p592
I00
sVcontains(online)
p593
I00
sVcontains(give)
p594
I00
sVcontains(statement)
p595
I00
sVcontains(credit)
p596
I00
sVcontains(balance)
p597
I01
sVcontains(want)
p598
I00
sVcontains(accomodation)
p599
I00
sVcontains(i)
p600
I00
sVcontains(confirm)
p601
I00
sVcontains(bank)
p602
I00
sVcontains(initiate)
p603
I00
sVcontains(need)
p604
I00
sVcontains(to)
p605
I00
sVcontains(savings)
p606
I00
sVcontains(get)
p607
I00
sVcontains(booking)
p608
I00
sVcontains(what)
p609
I00
sVcontains(document)
p610
I00
sVcontains(much)
p611
I00
sVcontains(make)
p612
I00
sVcontains(help)
p613
I00
sVcontains('s)
p614
I00
sVcontains(transaction)
p615
I00
sVcontains(details)
p616
I00
sVcontains(nice)
p617
I00
sVcontains(amount)
p618
I00
sVcontains(can)
p619
I00
sS'Account intent'
p620
tp621
a((dp622
Vcontains(corporate)
p623
I00
sVcontains(confirmation)
p624
I00
sVcontains(of)
p625
I00
sVcontains(current)
p626
I00
sVcontains(start)
p627
I00
sVcontains(proof)
p628
I00
sVcontains(card)
p629
I00
sVcontains(me)
p630
I01
sVcontains(using)
p631
I00
sVcontains(have)
p632
I00
sVcontains(how)
p633
I00
sVcontains(in)
p634
I00
sVcontains(pay)
p635
I00
sVcontains(ask)
p636
I00
sVcontains(a)
p637
I00
sVcontains(on)
p638
I00
sVcontains(account)
p639
I01
sVcontains(payment)
p640
I00
sVcontains(the)
p641
I00
sVcontains(use)
p642
I00
sVcontains(Alexa)
p643
I00
sVcontains(do)
p644
I00
sVcontains(my)
p645
I01
sVcontains(checking)
p646
I01
sVcontains(for)
p647
I00
sVcontains(transfer)
p648
I00
sVcontains(starting)
p649
I00
sVcontains(hotel)
p650
I00
sVcontains(book)
p651
I00
sVcontains(tell)
p652
I01
sVcontains(city)
p653
I00
sVcontains(I)
p654
I00
sVcontains(an)
p655
I00
sVcontains(is)
p656
I00
sVcontains(doing)
p657
I00
sVcontains(money)
p658
I00
sVcontains(alexa)
p659
I00
sVcontains(citi)
p660
I00
sVcontains(online)
p661
I00
sVcontains(give)
p662
I00
sVcontains(statement)
p663
I00
sVcontains(credit)
p664
I00
sVcontains(balance)
p665
I01
sVcontains(want)
p666
I00
sVcontains(accomodation)
p667
I00
sVcontains(i)
p668
I00
sVcontains(confirm)
p669
I00
sVcontains(bank)
p670
I00
sVcontains(initiate)
p671
I00
sVcontains(need)
p672
I00
sVcontains(to)
p673
I00
sVcontains(savings)
p674
I00
sVcontains(get)
p675
I00
sVcontains(booking)
p676
I00
sVcontains(what)
p677
I00
sVcontains(document)
p678
I00
sVcontains(much)
p679
I00
sVcontains(make)
p680
I00
sVcontains(help)
p681
I00
sVcontains('s)
p682
I00
sVcontains(transaction)
p683
I00
sVcontains(details)
p684
I00
sVcontains(nice)
p685
I00
sVcontains(amount)
p686
I00
sVcontains(can)
p687
I00
sS'Account intent'
p688
tp689
a((dp690
Vcontains(corporate)
p691
I00
sVcontains(confirmation)
p692
I00
sVcontains(of)
p693
I00
sVcontains(current)
p694
I00
sVcontains(start)
p695
I00
sVcontains(proof)
p696
I00
sVcontains(card)
p697
I00
sVcontains(me)
p698
I01
sVcontains(using)
p699
I00
sVcontains(have)
p700
I00
sVcontains(how)
p701
I00
sVcontains(in)
p702
I00
sVcontains(pay)
p703
I00
sVcontains(ask)
p704
I00
sVcontains(a)
p705
I00
sVcontains(on)
p706
I00
sVcontains(account)
p707
I00
sVcontains(payment)
p708
I00
sVcontains(the)
p709
I00
sVcontains(use)
p710
I00
sVcontains(Alexa)
p711
I00
sVcontains(do)
p712
I00
sVcontains(my)
p713
I01
sVcontains(checking)
p714
I01
sVcontains(for)
p715
I00
sVcontains(transfer)
p716
I00
sVcontains(starting)
p717
I00
sVcontains(hotel)
p718
I00
sVcontains(book)
p719
I00
sVcontains(tell)
p720
I01
sVcontains(city)
p721
I00
sVcontains(I)
p722
I00
sVcontains(an)
p723
I00
sVcontains(is)
p724
I00
sVcontains(doing)
p725
I00
sVcontains(money)
p726
I00
sVcontains(alexa)
p727
I00
sVcontains(citi)
p728
I00
sVcontains(online)
p729
I00
sVcontains(give)
p730
I00
sVcontains(statement)
p731
I00
sVcontains(credit)
p732
I00
sVcontains(balance)
p733
I01
sVcontains(want)
p734
I00
sVcontains(accomodation)
p735
I00
sVcontains(i)
p736
I00
sVcontains(confirm)
p737
I00
sVcontains(bank)
p738
I00
sVcontains(initiate)
p739
I00
sVcontains(need)
p740
I00
sVcontains(to)
p741
I00
sVcontains(savings)
p742
I00
sVcontains(get)
p743
I00
sVcontains(booking)
p744
I00
sVcontains(what)
p745
I00
sVcontains(document)
p746
I00
sVcontains(much)
p747
I00
sVcontains(make)
p748
I00
sVcontains(help)
p749
I00
sVcontains('s)
p750
I00
sVcontains(transaction)
p751
I00
sVcontains(details)
p752
I00
sVcontains(nice)
p753
I00
sVcontains(amount)
p754
I00
sVcontains(can)
p755
I00
sS'Account intent'
p756
tp757
a((dp758
Vcontains(corporate)
p759
I00
sVcontains(confirmation)
p760
I00
sVcontains(of)
p761
I00
sVcontains(current)
p762
I00
sVcontains(start)
p763
I00
sVcontains(proof)
p764
I00
sVcontains(card)
p765
I00
sVcontains(me)
p766
I00
sVcontains(using)
p767
I00
sVcontains(have)
p768
I00
sVcontains(how)
p769
I00
sVcontains(in)
p770
I00
sVcontains(pay)
p771
I00
sVcontains(ask)
p772
I01
sVcontains(a)
p773
I00
sVcontains(on)
p774
I00
sVcontains(account)
p775
I01
sVcontains(payment)
p776
I00
sVcontains(the)
p777
I00
sVcontains(use)
p778
I00
sVcontains(Alexa)
p779
I01
sVcontains(do)
p780
I00
sVcontains(my)
p781
I01
sVcontains(checking)
p782
I01
sVcontains(for)
p783
I00
sVcontains(transfer)
p784
I00
sVcontains(starting)
p785
I00
sVcontains(hotel)
p786
I00
sVcontains(book)
p787
I00
sVcontains(tell)
p788
I00
sVcontains(city)
p789
I01
sVcontains(I)
p790
I00
sVcontains(an)
p791
I00
sVcontains(is)
p792
I01
sVcontains(doing)
p793
I00
sVcontains(money)
p794
I00
sVcontains(alexa)
p795
I00
sVcontains(citi)
p796
I00
sVcontains(online)
p797
I00
sVcontains(give)
p798
I00
sVcontains(statement)
p799
I00
sVcontains(credit)
p800
I00
sVcontains(balance)
p801
I01
sVcontains(want)
p802
I00
sVcontains(accomodation)
p803
I00
sVcontains(i)
p804
I00
sVcontains(confirm)
p805
I00
sVcontains(bank)
p806
I01
sVcontains(initiate)
p807
I00
sVcontains(need)
p808
I00
sVcontains(to)
p809
I00
sVcontains(savings)
p810
I00
sVcontains(get)
p811
I00
sVcontains(booking)
p812
I00
sVcontains(what)
p813
I01
sVcontains(document)
p814
I00
sVcontains(much)
p815
I00
sVcontains(make)
p816
I00
sVcontains(help)
p817
I00
sVcontains('s)
p818
I00
sVcontains(transaction)
p819
I00
sVcontains(details)
p820
I00
sVcontains(nice)
p821
I00
sVcontains(amount)
p822
I00
sVcontains(can)
p823
I00
sS'Account intent'
p824
tp825
a((dp826
Vcontains(corporate)
p827
I00
sVcontains(confirmation)
p828
I00
sVcontains(of)
p829
I00
sVcontains(current)
p830
I00
sVcontains(start)
p831
I00
sVcontains(proof)
p832
I00
sVcontains(card)
p833
I01
sVcontains(me)
p834
I00
sVcontains(using)
p835
I00
sVcontains(have)
p836
I00
sVcontains(how)
p837
I00
sVcontains(in)
p838
I00
sVcontains(pay)
p839
I00
sVcontains(ask)
p840
I01
sVcontains(a)
p841
I00
sVcontains(on)
p842
I01
sVcontains(account)
p843
I00
sVcontains(payment)
p844
I00
sVcontains(the)
p845
I01
sVcontains(use)
p846
I00
sVcontains(Alexa)
p847
I00
sVcontains(do)
p848
I00
sVcontains(my)
p849
I01
sVcontains(checking)
p850
I00
sVcontains(for)
p851
I00
sVcontains(transfer)
p852
I00
sVcontains(starting)
p853
I00
sVcontains(hotel)
p854
I00
sVcontains(book)
p855
I00
sVcontains(tell)
p856
I00
sVcontains(city)
p857
I01
sVcontains(I)
p858
I00
sVcontains(an)
p859
I00
sVcontains(is)
p860
I00
sVcontains(doing)
p861
I00
sVcontains(money)
p862
I00
sVcontains(alexa)
p863
I01
sVcontains(citi)
p864
I00
sVcontains(online)
p865
I00
sVcontains(give)
p866
I00
sVcontains(statement)
p867
I00
sVcontains(credit)
p868
I01
sVcontains(balance)
p869
I01
sVcontains(want)
p870
I00
sVcontains(accomodation)
p871
I00
sVcontains(i)
p872
I00
sVcontains(confirm)
p873
I00
sVcontains(bank)
p874
I01
sVcontains(initiate)
p875
I00
sVcontains(need)
p876
I00
sVcontains(to)
p877
I00
sVcontains(savings)
p878
I00
sVcontains(get)
p879
I00
sVcontains(booking)
p880
I00
sVcontains(what)
p881
I01
sVcontains(document)
p882
I00
sVcontains(much)
p883
I00
sVcontains(make)
p884
I00
sVcontains(help)
p885
I00
sVcontains('s)
p886
I00
sVcontains(transaction)
p887
I00
sVcontains(details)
p888
I00
sVcontains(nice)
p889
I00
sVcontains(amount)
p890
I00
sVcontains(can)
p891
I00
sS'Account intent'
p892
tp893
a((dp894
Vcontains(corporate)
p895
I00
sVcontains(confirmation)
p896
I00
sVcontains(of)
p897
I00
sVcontains(current)
p898
I00
sVcontains(start)
p899
I00
sVcontains(proof)
p900
I00
sVcontains(card)
p901
I01
sVcontains(me)
p902
I00
sVcontains(using)
p903
I00
sVcontains(have)
p904
I00
sVcontains(how)
p905
I00
sVcontains(in)
p906
I00
sVcontains(pay)
p907
I00
sVcontains(ask)
p908
I00
sVcontains(a)
p909
I00
sVcontains(on)
p910
I01
sVcontains(account)
p911
I00
sVcontains(payment)
p912
I00
sVcontains(the)
p913
I01
sVcontains(use)
p914
I00
sVcontains(Alexa)
p915
I00
sVcontains(do)
p916
I00
sVcontains(my)
p917
I01
sVcontains(checking)
p918
I00
sVcontains(for)
p919
I00
sVcontains(transfer)
p920
I00
sVcontains(starting)
p921
I00
sVcontains(hotel)
p922
I00
sVcontains(book)
p923
I00
sVcontains(tell)
p924
I00
sVcontains(city)
p925
I00
sVcontains(I)
p926
I00
sVcontains(an)
p927
I00
sVcontains(is)
p928
I00
sVcontains(doing)
p929
I00
sVcontains(money)
p930
I00
sVcontains(alexa)
p931
I00
sVcontains(citi)
p932
I00
sVcontains(online)
p933
I00
sVcontains(give)
p934
I00
sVcontains(statement)
p935
I00
sVcontains(credit)
p936
I01
sVcontains(balance)
p937
I01
sVcontains(want)
p938
I00
sVcontains(accomodation)
p939
I00
sVcontains(i)
p940
I00
sVcontains(confirm)
p941
I00
sVcontains(bank)
p942
I00
sVcontains(initiate)
p943
I00
sVcontains(need)
p944
I00
sVcontains(to)
p945
I00
sVcontains(savings)
p946
I00
sVcontains(get)
p947
I00
sVcontains(booking)
p948
I00
sVcontains(what)
p949
I01
sVcontains(document)
p950
I00
sVcontains(much)
p951
I00
sVcontains(make)
p952
I00
sVcontains(help)
p953
I00
sVcontains('s)
p954
I00
sVcontains(transaction)
p955
I00
sVcontains(details)
p956
I00
sVcontains(nice)
p957
I00
sVcontains(amount)
p958
I00
sVcontains(can)
p959
I00
sS'Account intent'
p960
tp961
a((dp962
Vcontains(corporate)
p963
I00
sVcontains(confirmation)
p964
I00
sVcontains(of)
p965
I00
sVcontains(current)
p966
I00
sVcontains(start)
p967
I00
sVcontains(proof)
p968
I00
sVcontains(card)
p969
I01
sVcontains(me)
p970
I00
sVcontains(using)
p971
I00
sVcontains(have)
p972
I00
sVcontains(how)
p973
I00
sVcontains(in)
p974
I00
sVcontains(pay)
p975
I00
sVcontains(ask)
p976
I00
sVcontains(a)
p977
I00
sVcontains(on)
p978
I01
sVcontains(account)
p979
I00
sVcontains(payment)
p980
I00
sVcontains(the)
p981
I01
sVcontains(use)
p982
I00
sVcontains(Alexa)
p983
I00
sVcontains(do)
p984
I00
sVcontains(my)
p985
I01
sVcontains(checking)
p986
I00
sVcontains(for)
p987
I00
sVcontains(transfer)
p988
I00
sVcontains(starting)
p989
I00
sVcontains(hotel)
p990
I00
sVcontains(book)
p991
I00
sVcontains(tell)
p992
I00
sVcontains(city)
p993
I00
sVcontains(I)
p994
I00
sVcontains(an)
p995
I00
sVcontains(is)
p996
I01
sVcontains(doing)
p997
I00
sVcontains(money)
p998
I00
sVcontains(alexa)
p999
I00
sVcontains(citi)
p1000
I00
sVcontains(online)
p1001
I00
sVcontains(give)
p1002
I00
sVcontains(statement)
p1003
I00
sVcontains(credit)
p1004
I01
sVcontains(balance)
p1005
I01
sVcontains(want)
p1006
I00
sVcontains(accomodation)
p1007
I00
sVcontains(i)
p1008
I00
sVcontains(confirm)
p1009
I00
sVcontains(bank)
p1010
I00
sVcontains(initiate)
p1011
I00
sVcontains(need)
p1012
I00
sVcontains(to)
p1013
I00
sVcontains(savings)
p1014
I00
sVcontains(get)
p1015
I00
sVcontains(booking)
p1016
I00
sVcontains(what)
p1017
I01
sVcontains(document)
p1018
I00
sVcontains(much)
p1019
I00
sVcontains(make)
p1020
I00
sVcontains(help)
p1021
I00
sVcontains('s)
p1022
I00
sVcontains(transaction)
p1023
I00
sVcontains(details)
p1024
I00
sVcontains(nice)
p1025
I00
sVcontains(amount)
p1026
I00
sVcontains(can)
p1027
I00
sS'Account intent'
p1028
tp1029
a((dp1030
Vcontains(corporate)
p1031
I00
sVcontains(confirmation)
p1032
I00
sVcontains(of)
p1033
I00
sVcontains(current)
p1034
I00
sVcontains(start)
p1035
I00
sVcontains(proof)
p1036
I00
sVcontains(card)
p1037
I01
sVcontains(me)
p1038
I00
sVcontains(using)
p1039
I00
sVcontains(have)
p1040
I00
sVcontains(how)
p1041
I00
sVcontains(in)
p1042
I00
sVcontains(pay)
p1043
I00
sVcontains(ask)
p1044
I00
sVcontains(a)
p1045
I00
sVcontains(on)
p1046
I00
sVcontains(account)
p1047
I00
sVcontains(payment)
p1048
I00
sVcontains(the)
p1049
I00
sVcontains(use)
p1050
I00
sVcontains(Alexa)
p1051
I00
sVcontains(do)
p1052
I00
sVcontains(my)
p1053
I01
sVcontains(checking)
p1054
I00
sVcontains(for)
p1055
I00
sVcontains(transfer)
p1056
I00
sVcontains(starting)
p1057
I00
sVcontains(hotel)
p1058
I00
sVcontains(book)
p1059
I00
sVcontains(tell)
p1060
I00
sVcontains(city)
p1061
I00
sVcontains(I)
p1062
I00
sVcontains(an)
p1063
I00
sVcontains(is)
p1064
I00
sVcontains(doing)
p1065
I00
sVcontains(money)
p1066
I00
sVcontains(alexa)
p1067
I00
sVcontains(citi)
p1068
I00
sVcontains(online)
p1069
I00
sVcontains(give)
p1070
I00
sVcontains(statement)
p1071
I00
sVcontains(credit)
p1072
I01
sVcontains(balance)
p1073
I01
sVcontains(want)
p1074
I00
sVcontains(accomodation)
p1075
I00
sVcontains(i)
p1076
I00
sVcontains(confirm)
p1077
I00
sVcontains(bank)
p1078
I00
sVcontains(initiate)
p1079
I00
sVcontains(need)
p1080
I00
sVcontains(to)
p1081
I00
sVcontains(savings)
p1082
I00
sVcontains(get)
p1083
I00
sVcontains(booking)
p1084
I00
sVcontains(what)
p1085
I00
sVcontains(document)
p1086
I00
sVcontains(much)
p1087
I00
sVcontains(make)
p1088
I00
sVcontains(help)
p1089
I00
sVcontains('s)
p1090
I00
sVcontains(transaction)
p1091
I00
sVcontains(details)
p1092
I00
sVcontains(nice)
p1093
I00
sVcontains(amount)
p1094
I00
sVcontains(can)
p1095
I00
sS'Account intent'
p1096
tp1097
a((dp1098
Vcontains(corporate)
p1099
I00
sVcontains(confirmation)
p1100
I00
sVcontains(of)
p1101
I00
sVcontains(current)
p1102
I00
sVcontains(start)
p1103
I00
sVcontains(proof)
p1104
I00
sVcontains(card)
p1105
I01
sVcontains(me)
p1106
I00
sVcontains(using)
p1107
I00
sVcontains(have)
p1108
I00
sVcontains(how)
p1109
I00
sVcontains(in)
p1110
I00
sVcontains(pay)
p1111
I00
sVcontains(ask)
p1112
I00
sVcontains(a)
p1113
I00
sVcontains(on)
p1114
I01
sVcontains(account)
p1115
I00
sVcontains(payment)
p1116
I00
sVcontains(the)
p1117
I01
sVcontains(use)
p1118
I00
sVcontains(Alexa)
p1119
I00
sVcontains(do)
p1120
I00
sVcontains(my)
p1121
I01
sVcontains(checking)
p1122
I00
sVcontains(for)
p1123
I00
sVcontains(transfer)
p1124
I00
sVcontains(starting)
p1125
I00
sVcontains(hotel)
p1126
I00
sVcontains(book)
p1127
I00
sVcontains(tell)
p1128
I00
sVcontains(city)
p1129
I00
sVcontains(I)
p1130
I00
sVcontains(an)
p1131
I00
sVcontains(is)
p1132
I01
sVcontains(doing)
p1133
I00
sVcontains(money)
p1134
I00
sVcontains(alexa)
p1135
I00
sVcontains(citi)
p1136
I00
sVcontains(online)
p1137
I00
sVcontains(give)
p1138
I00
sVcontains(statement)
p1139
I00
sVcontains(credit)
p1140
I01
sVcontains(balance)
p1141
I01
sVcontains(want)
p1142
I00
sVcontains(accomodation)
p1143
I00
sVcontains(i)
p1144
I00
sVcontains(confirm)
p1145
I00
sVcontains(bank)
p1146
I00
sVcontains(initiate)
p1147
I00
sVcontains(need)
p1148
I00
sVcontains(to)
p1149
I00
sVcontains(savings)
p1150
I00
sVcontains(get)
p1151
I00
sVcontains(booking)
p1152
I00
sVcontains(what)
p1153
I01
sVcontains(document)
p1154
I00
sVcontains(much)
p1155
I00
sVcontains(make)
p1156
I00
sVcontains(help)
p1157
I00
sVcontains('s)
p1158
I00
sVcontains(transaction)
p1159
I00
sVcontains(details)
p1160
I00
sVcontains(nice)
p1161
I00
sVcontains(amount)
p1162
I00
sVcontains(can)
p1163
I00
sS'Account intent'
p1164
tp1165
a((dp1166
Vcontains(corporate)
p1167
I00
sVcontains(confirmation)
p1168
I00
sVcontains(of)
p1169
I00
sVcontains(current)
p1170
I00
sVcontains(start)
p1171
I00
sVcontains(proof)
p1172
I00
sVcontains(card)
p1173
I00
sVcontains(me)
p1174
I00
sVcontains(using)
p1175
I00
sVcontains(have)
p1176
I00
sVcontains(how)
p1177
I00
sVcontains(in)
p1178
I00
sVcontains(pay)
p1179
I00
sVcontains(ask)
p1180
I00
sVcontains(a)
p1181
I00
sVcontains(on)
p1182
I00
sVcontains(account)
p1183
I00
sVcontains(payment)
p1184
I00
sVcontains(the)
p1185
I00
sVcontains(use)
p1186
I00
sVcontains(Alexa)
p1187
I00
sVcontains(do)
p1188
I00
sVcontains(my)
p1189
I00
sVcontains(checking)
p1190
I00
sVcontains(for)
p1191
I00
sVcontains(transfer)
p1192
I00
sVcontains(starting)
p1193
I00
sVcontains(hotel)
p1194
I00
sVcontains(book)
p1195
I00
sVcontains(tell)
p1196
I00
sVcontains(city)
p1197
I00
sVcontains(I)
p1198
I00
sVcontains(an)
p1199
I00
sVcontains(is)
p1200
I00
sVcontains(doing)
p1201
I00
sVcontains(money)
p1202
I00
sVcontains(alexa)
p1203
I00
sVcontains(citi)
p1204
I00
sVcontains(online)
p1205
I00
sVcontains(give)
p1206
I00
sVcontains(statement)
p1207
I00
sVcontains(credit)
p1208
I00
sVcontains(balance)
p1209
I01
sVcontains(want)
p1210
I00
sVcontains(accomodation)
p1211
I00
sVcontains(i)
p1212
I00
sVcontains(confirm)
p1213
I00
sVcontains(bank)
p1214
I00
sVcontains(initiate)
p1215
I00
sVcontains(need)
p1216
I00
sVcontains(to)
p1217
I00
sVcontains(savings)
p1218
I01
sVcontains(get)
p1219
I00
sVcontains(booking)
p1220
I00
sVcontains(what)
p1221
I00
sVcontains(document)
p1222
I00
sVcontains(much)
p1223
I00
sVcontains(make)
p1224
I00
sVcontains(help)
p1225
I00
sVcontains('s)
p1226
I00
sVcontains(transaction)
p1227
I00
sVcontains(details)
p1228
I00
sVcontains(nice)
p1229
I00
sVcontains(amount)
p1230
I00
sVcontains(can)
p1231
I00
sS'Account intent'
p1232
tp1233
a((dp1234
Vcontains(corporate)
p1235
I00
sVcontains(confirmation)
p1236
I00
sVcontains(of)
p1237
I00
sVcontains(current)
p1238
I00
sVcontains(start)
p1239
I00
sVcontains(proof)
p1240
I00
sVcontains(card)
p1241
I00
sVcontains(me)
p1242
I00
sVcontains(using)
p1243
I00
sVcontains(have)
p1244
I00
sVcontains(how)
p1245
I00
sVcontains(in)
p1246
I00
sVcontains(pay)
p1247
I00
sVcontains(ask)
p1248
I00
sVcontains(a)
p1249
I00
sVcontains(on)
p1250
I00
sVcontains(account)
p1251
I00
sVcontains(payment)
p1252
I00
sVcontains(the)
p1253
I00
sVcontains(use)
p1254
I00
sVcontains(Alexa)
p1255
I00
sVcontains(do)
p1256
I00
sVcontains(my)
p1257
I00
sVcontains(checking)
p1258
I00
sVcontains(for)
p1259
I00
sVcontains(transfer)
p1260
I00
sVcontains(starting)
p1261
I00
sVcontains(hotel)
p1262
I00
sVcontains(book)
p1263
I00
sVcontains(tell)
p1264
I00
sVcontains(city)
p1265
I00
sVcontains(I)
p1266
I00
sVcontains(an)
p1267
I00
sVcontains(is)
p1268
I00
sVcontains(doing)
p1269
I00
sVcontains(money)
p1270
I00
sVcontains(alexa)
p1271
I00
sVcontains(citi)
p1272
I00
sVcontains(online)
p1273
I00
sVcontains(give)
p1274
I00
sVcontains(statement)
p1275
I00
sVcontains(credit)
p1276
I01
sVcontains(balance)
p1277
I01
sVcontains(want)
p1278
I00
sVcontains(accomodation)
p1279
I00
sVcontains(i)
p1280
I00
sVcontains(confirm)
p1281
I00
sVcontains(bank)
p1282
I00
sVcontains(initiate)
p1283
I00
sVcontains(need)
p1284
I00
sVcontains(to)
p1285
I00
sVcontains(savings)
p1286
I00
sVcontains(get)
p1287
I00
sVcontains(booking)
p1288
I00
sVcontains(what)
p1289
I00
sVcontains(document)
p1290
I00
sVcontains(much)
p1291
I00
sVcontains(make)
p1292
I00
sVcontains(help)
p1293
I00
sVcontains('s)
p1294
I00
sVcontains(transaction)
p1295
I00
sVcontains(details)
p1296
I00
sVcontains(nice)
p1297
I00
sVcontains(amount)
p1298
I00
sVcontains(can)
p1299
I00
sS'Account intent'
p1300
tp1301
a((dp1302
Vcontains(corporate)
p1303
I00
sVcontains(confirmation)
p1304
I00
sVcontains(of)
p1305
I00
sVcontains(current)
p1306
I00
sVcontains(start)
p1307
I00
sVcontains(proof)
p1308
I00
sVcontains(card)
p1309
I01
sVcontains(me)
p1310
I00
sVcontains(using)
p1311
I00
sVcontains(have)
p1312
I00
sVcontains(how)
p1313
I00
sVcontains(in)
p1314
I00
sVcontains(pay)
p1315
I00
sVcontains(ask)
p1316
I00
sVcontains(a)
p1317
I00
sVcontains(on)
p1318
I00
sVcontains(account)
p1319
I00
sVcontains(payment)
p1320
I00
sVcontains(the)
p1321
I00
sVcontains(use)
p1322
I00
sVcontains(Alexa)
p1323
I00
sVcontains(do)
p1324
I00
sVcontains(my)
p1325
I00
sVcontains(checking)
p1326
I00
sVcontains(for)
p1327
I00
sVcontains(transfer)
p1328
I00
sVcontains(starting)
p1329
I00
sVcontains(hotel)
p1330
I00
sVcontains(book)
p1331
I00
sVcontains(tell)
p1332
I00
sVcontains(city)
p1333
I00
sVcontains(I)
p1334
I00
sVcontains(an)
p1335
I00
sVcontains(is)
p1336
I00
sVcontains(doing)
p1337
I00
sVcontains(money)
p1338
I00
sVcontains(alexa)
p1339
I00
sVcontains(citi)
p1340
I00
sVcontains(online)
p1341
I00
sVcontains(give)
p1342
I00
sVcontains(statement)
p1343
I00
sVcontains(credit)
p1344
I01
sVcontains(balance)
p1345
I01
sVcontains(want)
p1346
I00
sVcontains(accomodation)
p1347
I00
sVcontains(i)
p1348
I00
sVcontains(confirm)
p1349
I00
sVcontains(bank)
p1350
I00
sVcontains(initiate)
p1351
I00
sVcontains(need)
p1352
I00
sVcontains(to)
p1353
I00
sVcontains(savings)
p1354
I00
sVcontains(get)
p1355
I00
sVcontains(booking)
p1356
I00
sVcontains(what)
p1357
I00
sVcontains(document)
p1358
I00
sVcontains(much)
p1359
I00
sVcontains(make)
p1360
I00
sVcontains(help)
p1361
I00
sVcontains('s)
p1362
I00
sVcontains(transaction)
p1363
I00
sVcontains(details)
p1364
I00
sVcontains(nice)
p1365
I00
sVcontains(amount)
p1366
I00
sVcontains(can)
p1367
I00
sS'Account intent'
p1368
tp1369
a((dp1370
Vcontains(corporate)
p1371
I00
sVcontains(confirmation)
p1372
I00
sVcontains(of)
p1373
I00
sVcontains(current)
p1374
I00
sVcontains(start)
p1375
I00
sVcontains(proof)
p1376
I00
sVcontains(card)
p1377
I00
sVcontains(me)
p1378
I00
sVcontains(using)
p1379
I00
sVcontains(have)
p1380
I00
sVcontains(how)
p1381
I00
sVcontains(in)
p1382
I00
sVcontains(pay)
p1383
I00
sVcontains(ask)
p1384
I00
sVcontains(a)
p1385
I00
sVcontains(on)
p1386
I00
sVcontains(account)
p1387
I00
sVcontains(payment)
p1388
I00
sVcontains(the)
p1389
I00
sVcontains(use)
p1390
I00
sVcontains(Alexa)
p1391
I00
sVcontains(do)
p1392
I00
sVcontains(my)
p1393
I00
sVcontains(checking)
p1394
I00
sVcontains(for)
p1395
I00
sVcontains(transfer)
p1396
I00
sVcontains(starting)
p1397
I00
sVcontains(hotel)
p1398
I00
sVcontains(book)
p1399
I00
sVcontains(tell)
p1400
I00
sVcontains(city)
p1401
I00
sVcontains(I)
p1402
I00
sVcontains(an)
p1403
I00
sVcontains(is)
p1404
I00
sVcontains(doing)
p1405
I00
sVcontains(money)
p1406
I00
sVcontains(alexa)
p1407
I00
sVcontains(citi)
p1408
I00
sVcontains(online)
p1409
I00
sVcontains(give)
p1410
I00
sVcontains(statement)
p1411
I00
sVcontains(credit)
p1412
I00
sVcontains(balance)
p1413
I01
sVcontains(want)
p1414
I00
sVcontains(accomodation)
p1415
I00
sVcontains(i)
p1416
I00
sVcontains(confirm)
p1417
I00
sVcontains(bank)
p1418
I00
sVcontains(initiate)
p1419
I00
sVcontains(need)
p1420
I00
sVcontains(to)
p1421
I00
sVcontains(savings)
p1422
I01
sVcontains(get)
p1423
I00
sVcontains(booking)
p1424
I00
sVcontains(what)
p1425
I00
sVcontains(document)
p1426
I00
sVcontains(much)
p1427
I00
sVcontains(make)
p1428
I00
sVcontains(help)
p1429
I00
sVcontains('s)
p1430
I00
sVcontains(transaction)
p1431
I00
sVcontains(details)
p1432
I00
sVcontains(nice)
p1433
I00
sVcontains(amount)
p1434
I00
sVcontains(can)
p1435
I00
sS'Account intent'
p1436
tp1437
a((dp1438
Vcontains(corporate)
p1439
I00
sVcontains(confirmation)
p1440
I00
sVcontains(of)
p1441
I00
sVcontains(current)
p1442
I00
sVcontains(start)
p1443
I00
sVcontains(proof)
p1444
I00
sVcontains(card)
p1445
I00
sVcontains(me)
p1446
I00
sVcontains(using)
p1447
I00
sVcontains(have)
p1448
I00
sVcontains(how)
p1449
I00
sVcontains(in)
p1450
I00
sVcontains(pay)
p1451
I00
sVcontains(ask)
p1452
I00
sVcontains(a)
p1453
I00
sVcontains(on)
p1454
I00
sVcontains(account)
p1455
I00
sVcontains(payment)
p1456
I00
sVcontains(the)
p1457
I00
sVcontains(use)
p1458
I00
sVcontains(Alexa)
p1459
I00
sVcontains(do)
p1460
I00
sVcontains(my)
p1461
I00
sVcontains(checking)
p1462
I00
sVcontains(for)
p1463
I00
sVcontains(transfer)
p1464
I01
sVcontains(starting)
p1465
I00
sVcontains(hotel)
p1466
I00
sVcontains(book)
p1467
I00
sVcontains(tell)
p1468
I00
sVcontains(city)
p1469
I00
sVcontains(I)
p1470
I00
sVcontains(an)
p1471
I00
sVcontains(is)
p1472
I00
sVcontains(doing)
p1473
I00
sVcontains(money)
p1474
I00
sVcontains(alexa)
p1475
I00
sVcontains(citi)
p1476
I00
sVcontains(online)
p1477
I00
sVcontains(give)
p1478
I00
sVcontains(statement)
p1479
I00
sVcontains(credit)
p1480
I00
sVcontains(balance)
p1481
I00
sVcontains(want)
p1482
I00
sVcontains(accomodation)
p1483
I00
sVcontains(i)
p1484
I00
sVcontains(confirm)
p1485
I00
sVcontains(bank)
p1486
I00
sVcontains(initiate)
p1487
I00
sVcontains(need)
p1488
I00
sVcontains(to)
p1489
I01
sVcontains(savings)
p1490
I00
sVcontains(get)
p1491
I00
sVcontains(booking)
p1492
I00
sVcontains(what)
p1493
I00
sVcontains(document)
p1494
I00
sVcontains(much)
p1495
I00
sVcontains(make)
p1496
I00
sVcontains(help)
p1497
I00
sVcontains('s)
p1498
I00
sVcontains(transaction)
p1499
I00
sVcontains(details)
p1500
I00
sVcontains(nice)
p1501
I00
sVcontains(amount)
p1502
I01
sVcontains(can)
p1503
I00
sS'Transfer intent'
p1504
tp1505
a((dp1506
Vcontains(corporate)
p1507
I00
sVcontains(confirmation)
p1508
I00
sVcontains(of)
p1509
I00
sVcontains(current)
p1510
I00
sVcontains(start)
p1511
I00
sVcontains(proof)
p1512
I00
sVcontains(card)
p1513
I00
sVcontains(me)
p1514
I00
sVcontains(using)
p1515
I00
sVcontains(have)
p1516
I00
sVcontains(how)
p1517
I00
sVcontains(in)
p1518
I00
sVcontains(pay)
p1519
I00
sVcontains(ask)
p1520
I00
sVcontains(a)
p1521
I00
sVcontains(on)
p1522
I00
sVcontains(account)
p1523
I00
sVcontains(payment)
p1524
I00
sVcontains(the)
p1525
I00
sVcontains(use)
p1526
I00
sVcontains(Alexa)
p1527
I00
sVcontains(do)
p1528
I00
sVcontains(my)
p1529
I00
sVcontains(checking)
p1530
I00
sVcontains(for)
p1531
I00
sVcontains(transfer)
p1532
I01
sVcontains(starting)
p1533
I00
sVcontains(hotel)
p1534
I00
sVcontains(book)
p1535
I00
sVcontains(tell)
p1536
I00
sVcontains(city)
p1537
I00
sVcontains(I)
p1538
I01
sVcontains(an)
p1539
I00
sVcontains(is)
p1540
I00
sVcontains(doing)
p1541
I00
sVcontains(money)
p1542
I00
sVcontains(alexa)
p1543
I00
sVcontains(citi)
p1544
I00
sVcontains(online)
p1545
I00
sVcontains(give)
p1546
I00
sVcontains(statement)
p1547
I00
sVcontains(credit)
p1548
I00
sVcontains(balance)
p1549
I00
sVcontains(want)
p1550
I01
sVcontains(accomodation)
p1551
I00
sVcontains(i)
p1552
I00
sVcontains(confirm)
p1553
I00
sVcontains(bank)
p1554
I00
sVcontains(initiate)
p1555
I00
sVcontains(need)
p1556
I00
sVcontains(to)
p1557
I01
sVcontains(savings)
p1558
I00
sVcontains(get)
p1559
I00
sVcontains(booking)
p1560
I00
sVcontains(what)
p1561
I00
sVcontains(document)
p1562
I00
sVcontains(much)
p1563
I00
sVcontains(make)
p1564
I00
sVcontains(help)
p1565
I00
sVcontains('s)
p1566
I00
sVcontains(transaction)
p1567
I00
sVcontains(details)
p1568
I00
sVcontains(nice)
p1569
I00
sVcontains(amount)
p1570
I01
sVcontains(can)
p1571
I00
sS'Transfer intent'
p1572
tp1573
a((dp1574
Vcontains(corporate)
p1575
I00
sVcontains(confirmation)
p1576
I00
sVcontains(of)
p1577
I00
sVcontains(current)
p1578
I00
sVcontains(start)
p1579
I00
sVcontains(proof)
p1580
I00
sVcontains(card)
p1581
I00
sVcontains(me)
p1582
I00
sVcontains(using)
p1583
I00
sVcontains(have)
p1584
I00
sVcontains(how)
p1585
I00
sVcontains(in)
p1586
I00
sVcontains(pay)
p1587
I00
sVcontains(ask)
p1588
I00
sVcontains(a)
p1589
I01
sVcontains(on)
p1590
I00
sVcontains(account)
p1591
I00
sVcontains(payment)
p1592
I01
sVcontains(the)
p1593
I00
sVcontains(use)
p1594
I00
sVcontains(Alexa)
p1595
I00
sVcontains(do)
p1596
I00
sVcontains(my)
p1597
I00
sVcontains(checking)
p1598
I00
sVcontains(for)
p1599
I00
sVcontains(transfer)
p1600
I00
sVcontains(starting)
p1601
I00
sVcontains(hotel)
p1602
I00
sVcontains(book)
p1603
I00
sVcontains(tell)
p1604
I00
sVcontains(city)
p1605
I00
sVcontains(I)
p1606
I00
sVcontains(an)
p1607
I00
sVcontains(is)
p1608
I00
sVcontains(doing)
p1609
I00
sVcontains(money)
p1610
I00
sVcontains(alexa)
p1611
I00
sVcontains(citi)
p1612
I00
sVcontains(online)
p1613
I00
sVcontains(give)
p1614
I00
sVcontains(statement)
p1615
I00
sVcontains(credit)
p1616
I00
sVcontains(balance)
p1617
I00
sVcontains(want)
p1618
I01
sVcontains(accomodation)
p1619
I00
sVcontains(i)
p1620
I01
sVcontains(confirm)
p1621
I00
sVcontains(bank)
p1622
I00
sVcontains(initiate)
p1623
I00
sVcontains(need)
p1624
I00
sVcontains(to)
p1625
I01
sVcontains(savings)
p1626
I00
sVcontains(get)
p1627
I00
sVcontains(booking)
p1628
I00
sVcontains(what)
p1629
I00
sVcontains(document)
p1630
I00
sVcontains(much)
p1631
I00
sVcontains(make)
p1632
I01
sVcontains(help)
p1633
I00
sVcontains('s)
p1634
I00
sVcontains(transaction)
p1635
I00
sVcontains(details)
p1636
I00
sVcontains(nice)
p1637
I00
sVcontains(amount)
p1638
I00
sVcontains(can)
p1639
I00
sS'Transfer intent'
p1640
tp1641
a((dp1642
Vcontains(corporate)
p1643
I00
sVcontains(confirmation)
p1644
I00
sVcontains(of)
p1645
I00
sVcontains(current)
p1646
I00
sVcontains(start)
p1647
I00
sVcontains(proof)
p1648
I00
sVcontains(card)
p1649
I00
sVcontains(me)
p1650
I00
sVcontains(using)
p1651
I00
sVcontains(have)
p1652
I00
sVcontains(how)
p1653
I00
sVcontains(in)
p1654
I00
sVcontains(pay)
p1655
I00
sVcontains(ask)
p1656
I00
sVcontains(a)
p1657
I00
sVcontains(on)
p1658
I00
sVcontains(account)
p1659
I00
sVcontains(payment)
p1660
I01
sVcontains(the)
p1661
I00
sVcontains(use)
p1662
I00
sVcontains(Alexa)
p1663
I00
sVcontains(do)
p1664
I00
sVcontains(my)
p1665
I00
sVcontains(checking)
p1666
I00
sVcontains(for)
p1667
I00
sVcontains(transfer)
p1668
I00
sVcontains(starting)
p1669
I00
sVcontains(hotel)
p1670
I00
sVcontains(book)
p1671
I00
sVcontains(tell)
p1672
I00
sVcontains(city)
p1673
I00
sVcontains(I)
p1674
I00
sVcontains(an)
p1675
I00
sVcontains(is)
p1676
I00
sVcontains(doing)
p1677
I00
sVcontains(money)
p1678
I00
sVcontains(alexa)
p1679
I00
sVcontains(citi)
p1680
I00
sVcontains(online)
p1681
I00
sVcontains(give)
p1682
I00
sVcontains(statement)
p1683
I00
sVcontains(credit)
p1684
I00
sVcontains(balance)
p1685
I00
sVcontains(want)
p1686
I00
sVcontains(accomodation)
p1687
I00
sVcontains(i)
p1688
I00
sVcontains(confirm)
p1689
I00
sVcontains(bank)
p1690
I00
sVcontains(initiate)
p1691
I00
sVcontains(need)
p1692
I00
sVcontains(to)
p1693
I00
sVcontains(savings)
p1694
I00
sVcontains(get)
p1695
I00
sVcontains(booking)
p1696
I00
sVcontains(what)
p1697
I00
sVcontains(document)
p1698
I00
sVcontains(much)
p1699
I00
sVcontains(make)
p1700
I01
sVcontains(help)
p1701
I00
sVcontains('s)
p1702
I00
sVcontains(transaction)
p1703
I00
sVcontains(details)
p1704
I00
sVcontains(nice)
p1705
I00
sVcontains(amount)
p1706
I00
sVcontains(can)
p1707
I00
sS'Transfer intent'
p1708
tp1709
a((dp1710
Vcontains(corporate)
p1711
I00
sVcontains(confirmation)
p1712
I00
sVcontains(of)
p1713
I00
sVcontains(current)
p1714
I00
sVcontains(start)
p1715
I00
sVcontains(proof)
p1716
I00
sVcontains(card)
p1717
I00
sVcontains(me)
p1718
I00
sVcontains(using)
p1719
I00
sVcontains(have)
p1720
I00
sVcontains(how)
p1721
I00
sVcontains(in)
p1722
I00
sVcontains(pay)
p1723
I00
sVcontains(ask)
p1724
I00
sVcontains(a)
p1725
I01
sVcontains(on)
p1726
I00
sVcontains(account)
p1727
I00
sVcontains(payment)
p1728
I01
sVcontains(the)
p1729
I00
sVcontains(use)
p1730
I00
sVcontains(Alexa)
p1731
I00
sVcontains(do)
p1732
I00
sVcontains(my)
p1733
I00
sVcontains(checking)
p1734
I00
sVcontains(for)
p1735
I00
sVcontains(transfer)
p1736
I00
sVcontains(starting)
p1737
I00
sVcontains(hotel)
p1738
I00
sVcontains(book)
p1739
I00
sVcontains(tell)
p1740
I00
sVcontains(city)
p1741
I00
sVcontains(I)
p1742
I00
sVcontains(an)
p1743
I00
sVcontains(is)
p1744
I00
sVcontains(doing)
p1745
I00
sVcontains(money)
p1746
I00
sVcontains(alexa)
p1747
I00
sVcontains(citi)
p1748
I00
sVcontains(online)
p1749
I00
sVcontains(give)
p1750
I00
sVcontains(statement)
p1751
I00
sVcontains(credit)
p1752
I00
sVcontains(balance)
p1753
I00
sVcontains(want)
p1754
I00
sVcontains(accomodation)
p1755
I00
sVcontains(i)
p1756
I00
sVcontains(confirm)
p1757
I00
sVcontains(bank)
p1758
I00
sVcontains(initiate)
p1759
I01
sVcontains(need)
p1760
I00
sVcontains(to)
p1761
I00
sVcontains(savings)
p1762
I00
sVcontains(get)
p1763
I00
sVcontains(booking)
p1764
I00
sVcontains(what)
p1765
I00
sVcontains(document)
p1766
I00
sVcontains(much)
p1767
I00
sVcontains(make)
p1768
I00
sVcontains(help)
p1769
I00
sVcontains('s)
p1770
I00
sVcontains(transaction)
p1771
I00
sVcontains(details)
p1772
I00
sVcontains(nice)
p1773
I00
sVcontains(amount)
p1774
I00
sVcontains(can)
p1775
I00
sS'Transfer intent'
p1776
tp1777
a((dp1778
Vcontains(corporate)
p1779
I00
sVcontains(confirmation)
p1780
I00
sVcontains(of)
p1781
I00
sVcontains(current)
p1782
I00
sVcontains(start)
p1783
I00
sVcontains(proof)
p1784
I00
sVcontains(card)
p1785
I00
sVcontains(me)
p1786
I00
sVcontains(using)
p1787
I00
sVcontains(have)
p1788
I00
sVcontains(how)
p1789
I00
sVcontains(in)
p1790
I00
sVcontains(pay)
p1791
I00
sVcontains(ask)
p1792
I00
sVcontains(a)
p1793
I01
sVcontains(on)
p1794
I00
sVcontains(account)
p1795
I00
sVcontains(payment)
p1796
I01
sVcontains(the)
p1797
I00
sVcontains(use)
p1798
I00
sVcontains(Alexa)
p1799
I00
sVcontains(do)
p1800
I01
sVcontains(my)
p1801
I00
sVcontains(checking)
p1802
I00
sVcontains(for)
p1803
I00
sVcontains(transfer)
p1804
I01
sVcontains(starting)
p1805
I00
sVcontains(hotel)
p1806
I00
sVcontains(book)
p1807
I00
sVcontains(tell)
p1808
I00
sVcontains(city)
p1809
I00
sVcontains(I)
p1810
I00
sVcontains(an)
p1811
I00
sVcontains(is)
p1812
I00
sVcontains(doing)
p1813
I00
sVcontains(money)
p1814
I00
sVcontains(alexa)
p1815
I00
sVcontains(citi)
p1816
I00
sVcontains(online)
p1817
I00
sVcontains(give)
p1818
I00
sVcontains(statement)
p1819
I00
sVcontains(credit)
p1820
I00
sVcontains(balance)
p1821
I00
sVcontains(want)
p1822
I00
sVcontains(accomodation)
p1823
I00
sVcontains(i)
p1824
I00
sVcontains(confirm)
p1825
I00
sVcontains(bank)
p1826
I00
sVcontains(initiate)
p1827
I00
sVcontains(need)
p1828
I00
sVcontains(to)
p1829
I00
sVcontains(savings)
p1830
I00
sVcontains(get)
p1831
I00
sVcontains(booking)
p1832
I00
sVcontains(what)
p1833
I00
sVcontains(document)
p1834
I00
sVcontains(much)
p1835
I00
sVcontains(make)
p1836
I00
sVcontains(help)
p1837
I00
sVcontains('s)
p1838
I00
sVcontains(transaction)
p1839
I00
sVcontains(details)
p1840
I00
sVcontains(nice)
p1841
I00
sVcontains(amount)
p1842
I00
sVcontains(can)
p1843
I00
sS'Transfer intent'
p1844
tp1845
a((dp1846
Vcontains(corporate)
p1847
I00
sVcontains(confirmation)
p1848
I00
sVcontains(of)
p1849
I00
sVcontains(current)
p1850
I00
sVcontains(start)
p1851
I00
sVcontains(proof)
p1852
I00
sVcontains(card)
p1853
I00
sVcontains(me)
p1854
I00
sVcontains(using)
p1855
I00
sVcontains(have)
p1856
I00
sVcontains(how)
p1857
I00
sVcontains(in)
p1858
I00
sVcontains(pay)
p1859
I01
sVcontains(ask)
p1860
I00
sVcontains(a)
p1861
I00
sVcontains(on)
p1862
I00
sVcontains(account)
p1863
I00
sVcontains(payment)
p1864
I00
sVcontains(the)
p1865
I00
sVcontains(use)
p1866
I00
sVcontains(Alexa)
p1867
I00
sVcontains(do)
p1868
I00
sVcontains(my)
p1869
I00
sVcontains(checking)
p1870
I00
sVcontains(for)
p1871
I00
sVcontains(transfer)
p1872
I00
sVcontains(starting)
p1873
I00
sVcontains(hotel)
p1874
I00
sVcontains(book)
p1875
I00
sVcontains(tell)
p1876
I00
sVcontains(city)
p1877
I00
sVcontains(I)
p1878
I00
sVcontains(an)
p1879
I00
sVcontains(is)
p1880
I00
sVcontains(doing)
p1881
I00
sVcontains(money)
p1882
I01
sVcontains(alexa)
p1883
I00
sVcontains(citi)
p1884
I00
sVcontains(online)
p1885
I00
sVcontains(give)
p1886
I00
sVcontains(statement)
p1887
I00
sVcontains(credit)
p1888
I00
sVcontains(balance)
p1889
I00
sVcontains(want)
p1890
I00
sVcontains(accomodation)
p1891
I00
sVcontains(i)
p1892
I00
sVcontains(confirm)
p1893
I00
sVcontains(bank)
p1894
I00
sVcontains(initiate)
p1895
I00
sVcontains(need)
p1896
I00
sVcontains(to)
p1897
I00
sVcontains(savings)
p1898
I00
sVcontains(get)
p1899
I00
sVcontains(booking)
p1900
I00
sVcontains(what)
p1901
I00
sVcontains(document)
p1902
I00
sVcontains(much)
p1903
I00
sVcontains(make)
p1904
I00
sVcontains(help)
p1905
I00
sVcontains('s)
p1906
I00
sVcontains(transaction)
p1907
I00
sVcontains(details)
p1908
I00
sVcontains(nice)
p1909
I00
sVcontains(amount)
p1910
I00
sVcontains(can)
p1911
I00
sS'Transfer intent'
p1912
tp1913
a((dp1914
Vcontains(corporate)
p1915
I00
sVcontains(confirmation)
p1916
I00
sVcontains(of)
p1917
I00
sVcontains(current)
p1918
I00
sVcontains(start)
p1919
I00
sVcontains(proof)
p1920
I00
sVcontains(card)
p1921
I00
sVcontains(me)
p1922
I00
sVcontains(using)
p1923
I00
sVcontains(have)
p1924
I00
sVcontains(how)
p1925
I00
sVcontains(in)
p1926
I00
sVcontains(pay)
p1927
I01
sVcontains(ask)
p1928
I00
sVcontains(a)
p1929
I00
sVcontains(on)
p1930
I00
sVcontains(account)
p1931
I00
sVcontains(payment)
p1932
I00
sVcontains(the)
p1933
I00
sVcontains(use)
p1934
I00
sVcontains(Alexa)
p1935
I00
sVcontains(do)
p1936
I00
sVcontains(my)
p1937
I00
sVcontains(checking)
p1938
I00
sVcontains(for)
p1939
I00
sVcontains(transfer)
p1940
I00
sVcontains(starting)
p1941
I00
sVcontains(hotel)
p1942
I00
sVcontains(book)
p1943
I00
sVcontains(tell)
p1944
I00
sVcontains(city)
p1945
I00
sVcontains(I)
p1946
I01
sVcontains(an)
p1947
I00
sVcontains(is)
p1948
I00
sVcontains(doing)
p1949
I00
sVcontains(money)
p1950
I01
sVcontains(alexa)
p1951
I00
sVcontains(citi)
p1952
I00
sVcontains(online)
p1953
I00
sVcontains(give)
p1954
I00
sVcontains(statement)
p1955
I00
sVcontains(credit)
p1956
I00
sVcontains(balance)
p1957
I00
sVcontains(want)
p1958
I01
sVcontains(accomodation)
p1959
I00
sVcontains(i)
p1960
I00
sVcontains(confirm)
p1961
I00
sVcontains(bank)
p1962
I00
sVcontains(initiate)
p1963
I00
sVcontains(need)
p1964
I00
sVcontains(to)
p1965
I01
sVcontains(savings)
p1966
I00
sVcontains(get)
p1967
I00
sVcontains(booking)
p1968
I00
sVcontains(what)
p1969
I00
sVcontains(document)
p1970
I00
sVcontains(much)
p1971
I00
sVcontains(make)
p1972
I00
sVcontains(help)
p1973
I00
sVcontains('s)
p1974
I00
sVcontains(transaction)
p1975
I00
sVcontains(details)
p1976
I00
sVcontains(nice)
p1977
I00
sVcontains(amount)
p1978
I00
sVcontains(can)
p1979
I00
sS'Transfer intent'
p1980
tp1981
a((dp1982
Vcontains(corporate)
p1983
I00
sVcontains(confirmation)
p1984
I00
sVcontains(of)
p1985
I00
sVcontains(current)
p1986
I00
sVcontains(start)
p1987
I00
sVcontains(proof)
p1988
I00
sVcontains(card)
p1989
I00
sVcontains(me)
p1990
I00
sVcontains(using)
p1991
I00
sVcontains(have)
p1992
I00
sVcontains(how)
p1993
I00
sVcontains(in)
p1994
I00
sVcontains(pay)
p1995
I00
sVcontains(ask)
p1996
I00
sVcontains(a)
p1997
I00
sVcontains(on)
p1998
I00
sVcontains(account)
p1999
I00
sVcontains(payment)
p2000
I01
sVcontains(the)
p2001
I00
sVcontains(use)
p2002
I00
sVcontains(Alexa)
p2003
I00
sVcontains(do)
p2004
I00
sVcontains(my)
p2005
I00
sVcontains(checking)
p2006
I00
sVcontains(for)
p2007
I00
sVcontains(transfer)
p2008
I00
sVcontains(starting)
p2009
I00
sVcontains(hotel)
p2010
I00
sVcontains(book)
p2011
I00
sVcontains(tell)
p2012
I00
sVcontains(city)
p2013
I00
sVcontains(I)
p2014
I00
sVcontains(an)
p2015
I00
sVcontains(is)
p2016
I00
sVcontains(doing)
p2017
I00
sVcontains(money)
p2018
I01
sVcontains(alexa)
p2019
I00
sVcontains(citi)
p2020
I00
sVcontains(online)
p2021
I00
sVcontains(give)
p2022
I00
sVcontains(statement)
p2023
I00
sVcontains(credit)
p2024
I00
sVcontains(balance)
p2025
I00
sVcontains(want)
p2026
I00
sVcontains(accomodation)
p2027
I00
sVcontains(i)
p2028
I00
sVcontains(confirm)
p2029
I00
sVcontains(bank)
p2030
I00
sVcontains(initiate)
p2031
I00
sVcontains(need)
p2032
I00
sVcontains(to)
p2033
I00
sVcontains(savings)
p2034
I00
sVcontains(get)
p2035
I00
sVcontains(booking)
p2036
I00
sVcontains(what)
p2037
I00
sVcontains(document)
p2038
I00
sVcontains(much)
p2039
I00
sVcontains(make)
p2040
I00
sVcontains(help)
p2041
I00
sVcontains('s)
p2042
I00
sVcontains(transaction)
p2043
I00
sVcontains(details)
p2044
I00
sVcontains(nice)
p2045
I00
sVcontains(amount)
p2046
I00
sVcontains(can)
p2047
I00
sS'Transfer intent'
p2048
tp2049
a((dp2050
Vcontains(corporate)
p2051
I00
sVcontains(confirmation)
p2052
I00
sVcontains(of)
p2053
I00
sVcontains(current)
p2054
I00
sVcontains(start)
p2055
I00
sVcontains(proof)
p2056
I00
sVcontains(card)
p2057
I00
sVcontains(me)
p2058
I00
sVcontains(using)
p2059
I00
sVcontains(have)
p2060
I00
sVcontains(how)
p2061
I00
sVcontains(in)
p2062
I00
sVcontains(pay)
p2063
I00
sVcontains(ask)
p2064
I00
sVcontains(a)
p2065
I01
sVcontains(on)
p2066
I00
sVcontains(account)
p2067
I00
sVcontains(payment)
p2068
I01
sVcontains(the)
p2069
I00
sVcontains(use)
p2070
I00
sVcontains(Alexa)
p2071
I00
sVcontains(do)
p2072
I00
sVcontains(my)
p2073
I00
sVcontains(checking)
p2074
I00
sVcontains(for)
p2075
I00
sVcontains(transfer)
p2076
I00
sVcontains(starting)
p2077
I00
sVcontains(hotel)
p2078
I00
sVcontains(book)
p2079
I00
sVcontains(tell)
p2080
I00
sVcontains(city)
p2081
I00
sVcontains(I)
p2082
I00
sVcontains(an)
p2083
I00
sVcontains(is)
p2084
I00
sVcontains(doing)
p2085
I00
sVcontains(money)
p2086
I00
sVcontains(alexa)
p2087
I00
sVcontains(citi)
p2088
I00
sVcontains(online)
p2089
I00
sVcontains(give)
p2090
I00
sVcontains(statement)
p2091
I00
sVcontains(credit)
p2092
I00
sVcontains(balance)
p2093
I00
sVcontains(want)
p2094
I01
sVcontains(accomodation)
p2095
I00
sVcontains(i)
p2096
I01
sVcontains(confirm)
p2097
I00
sVcontains(bank)
p2098
I00
sVcontains(initiate)
p2099
I01
sVcontains(need)
p2100
I00
sVcontains(to)
p2101
I01
sVcontains(savings)
p2102
I00
sVcontains(get)
p2103
I00
sVcontains(booking)
p2104
I00
sVcontains(what)
p2105
I00
sVcontains(document)
p2106
I00
sVcontains(much)
p2107
I00
sVcontains(make)
p2108
I00
sVcontains(help)
p2109
I00
sVcontains('s)
p2110
I00
sVcontains(transaction)
p2111
I00
sVcontains(details)
p2112
I00
sVcontains(nice)
p2113
I00
sVcontains(amount)
p2114
I00
sVcontains(can)
p2115
I00
sS'Transfer intent'
p2116
tp2117
a((dp2118
Vcontains(corporate)
p2119
I00
sVcontains(confirmation)
p2120
I00
sVcontains(of)
p2121
I00
sVcontains(current)
p2122
I00
sVcontains(start)
p2123
I00
sVcontains(proof)
p2124
I00
sVcontains(card)
p2125
I00
sVcontains(me)
p2126
I00
sVcontains(using)
p2127
I00
sVcontains(have)
p2128
I00
sVcontains(how)
p2129
I00
sVcontains(in)
p2130
I00
sVcontains(pay)
p2131
I00
sVcontains(ask)
p2132
I00
sVcontains(a)
p2133
I00
sVcontains(on)
p2134
I00
sVcontains(account)
p2135
I00
sVcontains(payment)
p2136
I00
sVcontains(the)
p2137
I00
sVcontains(use)
p2138
I00
sVcontains(Alexa)
p2139
I00
sVcontains(do)
p2140
I00
sVcontains(my)
p2141
I00
sVcontains(checking)
p2142
I00
sVcontains(for)
p2143
I00
sVcontains(transfer)
p2144
I01
sVcontains(starting)
p2145
I00
sVcontains(hotel)
p2146
I00
sVcontains(book)
p2147
I00
sVcontains(tell)
p2148
I00
sVcontains(city)
p2149
I00
sVcontains(I)
p2150
I00
sVcontains(an)
p2151
I00
sVcontains(is)
p2152
I00
sVcontains(doing)
p2153
I00
sVcontains(money)
p2154
I01
sVcontains(alexa)
p2155
I00
sVcontains(citi)
p2156
I00
sVcontains(online)
p2157
I00
sVcontains(give)
p2158
I00
sVcontains(statement)
p2159
I00
sVcontains(credit)
p2160
I00
sVcontains(balance)
p2161
I00
sVcontains(want)
p2162
I00
sVcontains(accomodation)
p2163
I00
sVcontains(i)
p2164
I00
sVcontains(confirm)
p2165
I00
sVcontains(bank)
p2166
I00
sVcontains(initiate)
p2167
I00
sVcontains(need)
p2168
I00
sVcontains(to)
p2169
I00
sVcontains(savings)
p2170
I00
sVcontains(get)
p2171
I00
sVcontains(booking)
p2172
I00
sVcontains(what)
p2173
I00
sVcontains(document)
p2174
I00
sVcontains(much)
p2175
I00
sVcontains(make)
p2176
I00
sVcontains(help)
p2177
I00
sVcontains('s)
p2178
I00
sVcontains(transaction)
p2179
I00
sVcontains(details)
p2180
I00
sVcontains(nice)
p2181
I00
sVcontains(amount)
p2182
I00
sVcontains(can)
p2183
I00
sS'Transfer intent'
p2184
tp2185
a((dp2186
Vcontains(corporate)
p2187
I01
sVcontains(confirmation)
p2188
I00
sVcontains(of)
p2189
I00
sVcontains(current)
p2190
I00
sVcontains(start)
p2191
I00
sVcontains(proof)
p2192
I00
sVcontains(card)
p2193
I00
sVcontains(me)
p2194
I00
sVcontains(using)
p2195
I00
sVcontains(have)
p2196
I00
sVcontains(how)
p2197
I00
sVcontains(in)
p2198
I00
sVcontains(pay)
p2199
I00
sVcontains(ask)
p2200
I00
sVcontains(a)
p2201
I00
sVcontains(on)
p2202
I00
sVcontains(account)
p2203
I00
sVcontains(payment)
p2204
I00
sVcontains(the)
p2205
I00
sVcontains(use)
p2206
I00
sVcontains(Alexa)
p2207
I00
sVcontains(do)
p2208
I01
sVcontains(my)
p2209
I00
sVcontains(checking)
p2210
I00
sVcontains(for)
p2211
I00
sVcontains(transfer)
p2212
I01
sVcontains(starting)
p2213
I00
sVcontains(hotel)
p2214
I00
sVcontains(book)
p2215
I00
sVcontains(tell)
p2216
I00
sVcontains(city)
p2217
I00
sVcontains(I)
p2218
I01
sVcontains(an)
p2219
I00
sVcontains(is)
p2220
I00
sVcontains(doing)
p2221
I00
sVcontains(money)
p2222
I00
sVcontains(alexa)
p2223
I00
sVcontains(citi)
p2224
I00
sVcontains(online)
p2225
I00
sVcontains(give)
p2226
I00
sVcontains(statement)
p2227
I00
sVcontains(credit)
p2228
I00
sVcontains(balance)
p2229
I00
sVcontains(want)
p2230
I01
sVcontains(accomodation)
p2231
I00
sVcontains(i)
p2232
I00
sVcontains(confirm)
p2233
I00
sVcontains(bank)
p2234
I00
sVcontains(initiate)
p2235
I00
sVcontains(need)
p2236
I00
sVcontains(to)
p2237
I01
sVcontains(savings)
p2238
I00
sVcontains(get)
p2239
I00
sVcontains(booking)
p2240
I00
sVcontains(what)
p2241
I00
sVcontains(document)
p2242
I00
sVcontains(much)
p2243
I00
sVcontains(make)
p2244
I00
sVcontains(help)
p2245
I00
sVcontains('s)
p2246
I00
sVcontains(transaction)
p2247
I00
sVcontains(details)
p2248
I00
sVcontains(nice)
p2249
I00
sVcontains(amount)
p2250
I00
sVcontains(can)
p2251
I00
sS'Transaction intent'
p2252
tp2253
a((dp2254
Vcontains(corporate)
p2255
I00
sVcontains(confirmation)
p2256
I00
sVcontains(of)
p2257
I00
sVcontains(current)
p2258
I00
sVcontains(start)
p2259
I00
sVcontains(proof)
p2260
I00
sVcontains(card)
p2261
I00
sVcontains(me)
p2262
I00
sVcontains(using)
p2263
I00
sVcontains(have)
p2264
I00
sVcontains(how)
p2265
I00
sVcontains(in)
p2266
I00
sVcontains(pay)
p2267
I00
sVcontains(ask)
p2268
I00
sVcontains(a)
p2269
I00
sVcontains(on)
p2270
I00
sVcontains(account)
p2271
I00
sVcontains(payment)
p2272
I00
sVcontains(the)
p2273
I00
sVcontains(use)
p2274
I00
sVcontains(Alexa)
p2275
I00
sVcontains(do)
p2276
I01
sVcontains(my)
p2277
I00
sVcontains(checking)
p2278
I00
sVcontains(for)
p2279
I00
sVcontains(transfer)
p2280
I00
sVcontains(starting)
p2281
I00
sVcontains(hotel)
p2282
I00
sVcontains(book)
p2283
I00
sVcontains(tell)
p2284
I00
sVcontains(city)
p2285
I00
sVcontains(I)
p2286
I01
sVcontains(an)
p2287
I00
sVcontains(is)
p2288
I00
sVcontains(doing)
p2289
I00
sVcontains(money)
p2290
I00
sVcontains(alexa)
p2291
I00
sVcontains(citi)
p2292
I00
sVcontains(online)
p2293
I00
sVcontains(give)
p2294
I00
sVcontains(statement)
p2295
I00
sVcontains(credit)
p2296
I00
sVcontains(balance)
p2297
I00
sVcontains(want)
p2298
I01
sVcontains(accomodation)
p2299
I00
sVcontains(i)
p2300
I00
sVcontains(confirm)
p2301
I00
sVcontains(bank)
p2302
I00
sVcontains(initiate)
p2303
I00
sVcontains(need)
p2304
I00
sVcontains(to)
p2305
I01
sVcontains(savings)
p2306
I00
sVcontains(get)
p2307
I00
sVcontains(booking)
p2308
I00
sVcontains(what)
p2309
I00
sVcontains(document)
p2310
I00
sVcontains(much)
p2311
I00
sVcontains(make)
p2312
I00
sVcontains(help)
p2313
I00
sVcontains('s)
p2314
I00
sVcontains(transaction)
p2315
I01
sVcontains(details)
p2316
I00
sVcontains(nice)
p2317
I00
sVcontains(amount)
p2318
I00
sVcontains(can)
p2319
I00
sS'Transaction intent'
p2320
tp2321
a((dp2322
Vcontains(corporate)
p2323
I00
sVcontains(confirmation)
p2324
I00
sVcontains(of)
p2325
I00
sVcontains(current)
p2326
I00
sVcontains(start)
p2327
I00
sVcontains(proof)
p2328
I00
sVcontains(card)
p2329
I00
sVcontains(me)
p2330
I00
sVcontains(using)
p2331
I00
sVcontains(have)
p2332
I00
sVcontains(how)
p2333
I00
sVcontains(in)
p2334
I00
sVcontains(pay)
p2335
I00
sVcontains(ask)
p2336
I00
sVcontains(a)
p2337
I01
sVcontains(on)
p2338
I00
sVcontains(account)
p2339
I00
sVcontains(payment)
p2340
I00
sVcontains(the)
p2341
I00
sVcontains(use)
p2342
I00
sVcontains(Alexa)
p2343
I00
sVcontains(do)
p2344
I00
sVcontains(my)
p2345
I00
sVcontains(checking)
p2346
I00
sVcontains(for)
p2347
I00
sVcontains(transfer)
p2348
I00
sVcontains(starting)
p2349
I00
sVcontains(hotel)
p2350
I00
sVcontains(book)
p2351
I00
sVcontains(tell)
p2352
I00
sVcontains(city)
p2353
I00
sVcontains(I)
p2354
I00
sVcontains(an)
p2355
I00
sVcontains(is)
p2356
I00
sVcontains(doing)
p2357
I00
sVcontains(money)
p2358
I00
sVcontains(alexa)
p2359
I00
sVcontains(citi)
p2360
I00
sVcontains(online)
p2361
I00
sVcontains(give)
p2362
I00
sVcontains(statement)
p2363
I00
sVcontains(credit)
p2364
I00
sVcontains(balance)
p2365
I00
sVcontains(want)
p2366
I00
sVcontains(accomodation)
p2367
I00
sVcontains(i)
p2368
I00
sVcontains(confirm)
p2369
I00
sVcontains(bank)
p2370
I00
sVcontains(initiate)
p2371
I00
sVcontains(need)
p2372
I00
sVcontains(to)
p2373
I00
sVcontains(savings)
p2374
I00
sVcontains(get)
p2375
I00
sVcontains(booking)
p2376
I00
sVcontains(what)
p2377
I00
sVcontains(document)
p2378
I00
sVcontains(much)
p2379
I00
sVcontains(make)
p2380
I01
sVcontains(help)
p2381
I00
sVcontains('s)
p2382
I00
sVcontains(transaction)
p2383
I01
sVcontains(details)
p2384
I00
sVcontains(nice)
p2385
I00
sVcontains(amount)
p2386
I00
sVcontains(can)
p2387
I00
sS'Transaction intent'
p2388
tp2389
a((dp2390
Vcontains(corporate)
p2391
I00
sVcontains(confirmation)
p2392
I00
sVcontains(of)
p2393
I00
sVcontains(current)
p2394
I00
sVcontains(start)
p2395
I00
sVcontains(proof)
p2396
I00
sVcontains(card)
p2397
I00
sVcontains(me)
p2398
I01
sVcontains(using)
p2399
I00
sVcontains(have)
p2400
I00
sVcontains(how)
p2401
I00
sVcontains(in)
p2402
I00
sVcontains(pay)
p2403
I00
sVcontains(ask)
p2404
I00
sVcontains(a)
p2405
I01
sVcontains(on)
p2406
I00
sVcontains(account)
p2407
I00
sVcontains(payment)
p2408
I00
sVcontains(the)
p2409
I00
sVcontains(use)
p2410
I00
sVcontains(Alexa)
p2411
I00
sVcontains(do)
p2412
I01
sVcontains(my)
p2413
I00
sVcontains(checking)
p2414
I00
sVcontains(for)
p2415
I01
sVcontains(transfer)
p2416
I00
sVcontains(starting)
p2417
I00
sVcontains(hotel)
p2418
I00
sVcontains(book)
p2419
I00
sVcontains(tell)
p2420
I00
sVcontains(city)
p2421
I00
sVcontains(I)
p2422
I00
sVcontains(an)
p2423
I00
sVcontains(is)
p2424
I00
sVcontains(doing)
p2425
I00
sVcontains(money)
p2426
I00
sVcontains(alexa)
p2427
I00
sVcontains(citi)
p2428
I00
sVcontains(online)
p2429
I00
sVcontains(give)
p2430
I00
sVcontains(statement)
p2431
I00
sVcontains(credit)
p2432
I00
sVcontains(balance)
p2433
I00
sVcontains(want)
p2434
I00
sVcontains(accomodation)
p2435
I00
sVcontains(i)
p2436
I00
sVcontains(confirm)
p2437
I00
sVcontains(bank)
p2438
I00
sVcontains(initiate)
p2439
I00
sVcontains(need)
p2440
I00
sVcontains(to)
p2441
I00
sVcontains(savings)
p2442
I00
sVcontains(get)
p2443
I00
sVcontains(booking)
p2444
I00
sVcontains(what)
p2445
I00
sVcontains(document)
p2446
I00
sVcontains(much)
p2447
I00
sVcontains(make)
p2448
I00
sVcontains(help)
p2449
I00
sVcontains('s)
p2450
I00
sVcontains(transaction)
p2451
I01
sVcontains(details)
p2452
I00
sVcontains(nice)
p2453
I00
sVcontains(amount)
p2454
I00
sVcontains(can)
p2455
I00
sS'TransactionIntent'
p2456
tp2457
a((dp2458
Vcontains(corporate)
p2459
I01
sVcontains(confirmation)
p2460
I00
sVcontains(of)
p2461
I00
sVcontains(current)
p2462
I00
sVcontains(start)
p2463
I00
sVcontains(proof)
p2464
I00
sVcontains(card)
p2465
I00
sVcontains(me)
p2466
I00
sVcontains(using)
p2467
I00
sVcontains(have)
p2468
I00
sVcontains(how)
p2469
I00
sVcontains(in)
p2470
I00
sVcontains(pay)
p2471
I00
sVcontains(ask)
p2472
I00
sVcontains(a)
p2473
I00
sVcontains(on)
p2474
I00
sVcontains(account)
p2475
I00
sVcontains(payment)
p2476
I00
sVcontains(the)
p2477
I00
sVcontains(use)
p2478
I00
sVcontains(Alexa)
p2479
I00
sVcontains(do)
p2480
I01
sVcontains(my)
p2481
I00
sVcontains(checking)
p2482
I00
sVcontains(for)
p2483
I00
sVcontains(transfer)
p2484
I00
sVcontains(starting)
p2485
I00
sVcontains(hotel)
p2486
I00
sVcontains(book)
p2487
I00
sVcontains(tell)
p2488
I00
sVcontains(city)
p2489
I00
sVcontains(I)
p2490
I01
sVcontains(an)
p2491
I00
sVcontains(is)
p2492
I00
sVcontains(doing)
p2493
I00
sVcontains(money)
p2494
I00
sVcontains(alexa)
p2495
I00
sVcontains(citi)
p2496
I00
sVcontains(online)
p2497
I00
sVcontains(give)
p2498
I00
sVcontains(statement)
p2499
I00
sVcontains(credit)
p2500
I00
sVcontains(balance)
p2501
I00
sVcontains(want)
p2502
I01
sVcontains(accomodation)
p2503
I00
sVcontains(i)
p2504
I00
sVcontains(confirm)
p2505
I00
sVcontains(bank)
p2506
I00
sVcontains(initiate)
p2507
I00
sVcontains(need)
p2508
I00
sVcontains(to)
p2509
I01
sVcontains(savings)
p2510
I00
sVcontains(get)
p2511
I00
sVcontains(booking)
p2512
I00
sVcontains(what)
p2513
I00
sVcontains(document)
p2514
I00
sVcontains(much)
p2515
I00
sVcontains(make)
p2516
I00
sVcontains(help)
p2517
I00
sVcontains('s)
p2518
I00
sVcontains(transaction)
p2519
I01
sVcontains(details)
p2520
I00
sVcontains(nice)
p2521
I00
sVcontains(amount)
p2522
I00
sVcontains(can)
p2523
I00
sS'Transaction intent'
p2524
tp2525
a((dp2526
Vcontains(corporate)
p2527
I01
sVcontains(confirmation)
p2528
I00
sVcontains(of)
p2529
I00
sVcontains(current)
p2530
I00
sVcontains(start)
p2531
I00
sVcontains(proof)
p2532
I00
sVcontains(card)
p2533
I00
sVcontains(me)
p2534
I00
sVcontains(using)
p2535
I00
sVcontains(have)
p2536
I00
sVcontains(how)
p2537
I00
sVcontains(in)
p2538
I00
sVcontains(pay)
p2539
I00
sVcontains(ask)
p2540
I00
sVcontains(a)
p2541
I00
sVcontains(on)
p2542
I00
sVcontains(account)
p2543
I00
sVcontains(payment)
p2544
I00
sVcontains(the)
p2545
I00
sVcontains(use)
p2546
I00
sVcontains(Alexa)
p2547
I00
sVcontains(do)
p2548
I00
sVcontains(my)
p2549
I00
sVcontains(checking)
p2550
I00
sVcontains(for)
p2551
I00
sVcontains(transfer)
p2552
I00
sVcontains(starting)
p2553
I00
sVcontains(hotel)
p2554
I00
sVcontains(book)
p2555
I00
sVcontains(tell)
p2556
I00
sVcontains(city)
p2557
I00
sVcontains(I)
p2558
I00
sVcontains(an)
p2559
I00
sVcontains(is)
p2560
I00
sVcontains(doing)
p2561
I00
sVcontains(money)
p2562
I00
sVcontains(alexa)
p2563
I00
sVcontains(citi)
p2564
I00
sVcontains(online)
p2565
I00
sVcontains(give)
p2566
I00
sVcontains(statement)
p2567
I00
sVcontains(credit)
p2568
I00
sVcontains(balance)
p2569
I00
sVcontains(want)
p2570
I00
sVcontains(accomodation)
p2571
I00
sVcontains(i)
p2572
I00
sVcontains(confirm)
p2573
I00
sVcontains(bank)
p2574
I00
sVcontains(initiate)
p2575
I00
sVcontains(need)
p2576
I00
sVcontains(to)
p2577
I00
sVcontains(savings)
p2578
I00
sVcontains(get)
p2579
I00
sVcontains(booking)
p2580
I00
sVcontains(what)
p2581
I00
sVcontains(document)
p2582
I00
sVcontains(much)
p2583
I00
sVcontains(make)
p2584
I00
sVcontains(help)
p2585
I00
sVcontains('s)
p2586
I00
sVcontains(transaction)
p2587
I01
sVcontains(details)
p2588
I00
sVcontains(nice)
p2589
I00
sVcontains(amount)
p2590
I00
sVcontains(can)
p2591
I00
sS'Transaction intent'
p2592
tp2593
a((dp2594
Vcontains(corporate)
p2595
I01
sVcontains(confirmation)
p2596
I00
sVcontains(of)
p2597
I00
sVcontains(current)
p2598
I00
sVcontains(start)
p2599
I00
sVcontains(proof)
p2600
I00
sVcontains(card)
p2601
I00
sVcontains(me)
p2602
I00
sVcontains(using)
p2603
I00
sVcontains(have)
p2604
I00
sVcontains(how)
p2605
I00
sVcontains(in)
p2606
I00
sVcontains(pay)
p2607
I00
sVcontains(ask)
p2608
I00
sVcontains(a)
p2609
I01
sVcontains(on)
p2610
I00
sVcontains(account)
p2611
I00
sVcontains(payment)
p2612
I00
sVcontains(the)
p2613
I00
sVcontains(use)
p2614
I00
sVcontains(Alexa)
p2615
I00
sVcontains(do)
p2616
I00
sVcontains(my)
p2617
I00
sVcontains(checking)
p2618
I00
sVcontains(for)
p2619
I00
sVcontains(transfer)
p2620
I00
sVcontains(starting)
p2621
I00
sVcontains(hotel)
p2622
I00
sVcontains(book)
p2623
I00
sVcontains(tell)
p2624
I00
sVcontains(city)
p2625
I00
sVcontains(I)
p2626
I00
sVcontains(an)
p2627
I00
sVcontains(is)
p2628
I00
sVcontains(doing)
p2629
I00
sVcontains(money)
p2630
I00
sVcontains(alexa)
p2631
I00
sVcontains(citi)
p2632
I00
sVcontains(online)
p2633
I00
sVcontains(give)
p2634
I00
sVcontains(statement)
p2635
I00
sVcontains(credit)
p2636
I00
sVcontains(balance)
p2637
I00
sVcontains(want)
p2638
I00
sVcontains(accomodation)
p2639
I00
sVcontains(i)
p2640
I00
sVcontains(confirm)
p2641
I00
sVcontains(bank)
p2642
I00
sVcontains(initiate)
p2643
I00
sVcontains(need)
p2644
I00
sVcontains(to)
p2645
I00
sVcontains(savings)
p2646
I00
sVcontains(get)
p2647
I00
sVcontains(booking)
p2648
I00
sVcontains(what)
p2649
I00
sVcontains(document)
p2650
I00
sVcontains(much)
p2651
I00
sVcontains(make)
p2652
I01
sVcontains(help)
p2653
I00
sVcontains('s)
p2654
I00
sVcontains(transaction)
p2655
I01
sVcontains(details)
p2656
I00
sVcontains(nice)
p2657
I00
sVcontains(amount)
p2658
I00
sVcontains(can)
p2659
I00
sS'Transaction intent'
p2660
tp2661
a((dp2662
Vcontains(corporate)
p2663
I01
sVcontains(confirmation)
p2664
I00
sVcontains(of)
p2665
I00
sVcontains(current)
p2666
I00
sVcontains(start)
p2667
I00
sVcontains(proof)
p2668
I00
sVcontains(card)
p2669
I00
sVcontains(me)
p2670
I00
sVcontains(using)
p2671
I00
sVcontains(have)
p2672
I00
sVcontains(how)
p2673
I00
sVcontains(in)
p2674
I00
sVcontains(pay)
p2675
I00
sVcontains(ask)
p2676
I00
sVcontains(a)
p2677
I00
sVcontains(on)
p2678
I00
sVcontains(account)
p2679
I00
sVcontains(payment)
p2680
I00
sVcontains(the)
p2681
I00
sVcontains(use)
p2682
I00
sVcontains(Alexa)
p2683
I00
sVcontains(do)
p2684
I00
sVcontains(my)
p2685
I00
sVcontains(checking)
p2686
I00
sVcontains(for)
p2687
I00
sVcontains(transfer)
p2688
I00
sVcontains(starting)
p2689
I00
sVcontains(hotel)
p2690
I00
sVcontains(book)
p2691
I00
sVcontains(tell)
p2692
I00
sVcontains(city)
p2693
I00
sVcontains(I)
p2694
I00
sVcontains(an)
p2695
I00
sVcontains(is)
p2696
I00
sVcontains(doing)
p2697
I00
sVcontains(money)
p2698
I00
sVcontains(alexa)
p2699
I00
sVcontains(citi)
p2700
I00
sVcontains(online)
p2701
I00
sVcontains(give)
p2702
I00
sVcontains(statement)
p2703
I00
sVcontains(credit)
p2704
I00
sVcontains(balance)
p2705
I00
sVcontains(want)
p2706
I00
sVcontains(accomodation)
p2707
I00
sVcontains(i)
p2708
I00
sVcontains(confirm)
p2709
I00
sVcontains(bank)
p2710
I00
sVcontains(initiate)
p2711
I01
sVcontains(need)
p2712
I00
sVcontains(to)
p2713
I00
sVcontains(savings)
p2714
I00
sVcontains(get)
p2715
I00
sVcontains(booking)
p2716
I00
sVcontains(what)
p2717
I00
sVcontains(document)
p2718
I00
sVcontains(much)
p2719
I00
sVcontains(make)
p2720
I00
sVcontains(help)
p2721
I00
sVcontains('s)
p2722
I00
sVcontains(transaction)
p2723
I01
sVcontains(details)
p2724
I00
sVcontains(nice)
p2725
I00
sVcontains(amount)
p2726
I00
sVcontains(can)
p2727
I00
sS'Transaction intent'
p2728
tp2729
a((dp2730
Vcontains(corporate)
p2731
I00
sVcontains(confirmation)
p2732
I00
sVcontains(of)
p2733
I00
sVcontains(current)
p2734
I00
sVcontains(start)
p2735
I00
sVcontains(proof)
p2736
I00
sVcontains(card)
p2737
I00
sVcontains(me)
p2738
I00
sVcontains(using)
p2739
I00
sVcontains(have)
p2740
I00
sVcontains(how)
p2741
I00
sVcontains(in)
p2742
I00
sVcontains(pay)
p2743
I00
sVcontains(ask)
p2744
I00
sVcontains(a)
p2745
I00
sVcontains(on)
p2746
I00
sVcontains(account)
p2747
I00
sVcontains(payment)
p2748
I00
sVcontains(the)
p2749
I00
sVcontains(use)
p2750
I00
sVcontains(Alexa)
p2751
I00
sVcontains(do)
p2752
I00
sVcontains(my)
p2753
I00
sVcontains(checking)
p2754
I00
sVcontains(for)
p2755
I00
sVcontains(transfer)
p2756
I00
sVcontains(starting)
p2757
I00
sVcontains(hotel)
p2758
I01
sVcontains(book)
p2759
I01
sVcontains(tell)
p2760
I00
sVcontains(city)
p2761
I00
sVcontains(I)
p2762
I00
sVcontains(an)
p2763
I00
sVcontains(is)
p2764
I00
sVcontains(doing)
p2765
I00
sVcontains(money)
p2766
I00
sVcontains(alexa)
p2767
I00
sVcontains(citi)
p2768
I00
sVcontains(online)
p2769
I00
sVcontains(give)
p2770
I00
sVcontains(statement)
p2771
I00
sVcontains(credit)
p2772
I00
sVcontains(balance)
p2773
I00
sVcontains(want)
p2774
I00
sVcontains(accomodation)
p2775
I00
sVcontains(i)
p2776
I00
sVcontains(confirm)
p2777
I00
sVcontains(bank)
p2778
I00
sVcontains(initiate)
p2779
I00
sVcontains(need)
p2780
I00
sVcontains(to)
p2781
I00
sVcontains(savings)
p2782
I00
sVcontains(get)
p2783
I00
sVcontains(booking)
p2784
I00
sVcontains(what)
p2785
I00
sVcontains(document)
p2786
I00
sVcontains(much)
p2787
I00
sVcontains(make)
p2788
I00
sVcontains(help)
p2789
I00
sVcontains('s)
p2790
I00
sVcontains(transaction)
p2791
I00
sVcontains(details)
p2792
I00
sVcontains(nice)
p2793
I00
sVcontains(amount)
p2794
I00
sVcontains(can)
p2795
I00
sS'Book hotel'
p2796
tp2797
a((dp2798
Vcontains(corporate)
p2799
I00
sVcontains(confirmation)
p2800
I00
sVcontains(of)
p2801
I00
sVcontains(current)
p2802
I00
sVcontains(start)
p2803
I00
sVcontains(proof)
p2804
I00
sVcontains(card)
p2805
I00
sVcontains(me)
p2806
I00
sVcontains(using)
p2807
I00
sVcontains(have)
p2808
I00
sVcontains(how)
p2809
I00
sVcontains(in)
p2810
I00
sVcontains(pay)
p2811
I00
sVcontains(ask)
p2812
I00
sVcontains(a)
p2813
I01
sVcontains(on)
p2814
I00
sVcontains(account)
p2815
I00
sVcontains(payment)
p2816
I00
sVcontains(the)
p2817
I00
sVcontains(use)
p2818
I00
sVcontains(Alexa)
p2819
I00
sVcontains(do)
p2820
I00
sVcontains(my)
p2821
I00
sVcontains(checking)
p2822
I00
sVcontains(for)
p2823
I00
sVcontains(transfer)
p2824
I00
sVcontains(starting)
p2825
I00
sVcontains(hotel)
p2826
I01
sVcontains(book)
p2827
I00
sVcontains(tell)
p2828
I00
sVcontains(city)
p2829
I00
sVcontains(I)
p2830
I00
sVcontains(an)
p2831
I00
sVcontains(is)
p2832
I00
sVcontains(doing)
p2833
I00
sVcontains(money)
p2834
I00
sVcontains(alexa)
p2835
I00
sVcontains(citi)
p2836
I00
sVcontains(online)
p2837
I00
sVcontains(give)
p2838
I00
sVcontains(statement)
p2839
I00
sVcontains(credit)
p2840
I00
sVcontains(balance)
p2841
I00
sVcontains(want)
p2842
I01
sVcontains(accomodation)
p2843
I00
sVcontains(i)
p2844
I01
sVcontains(confirm)
p2845
I00
sVcontains(bank)
p2846
I00
sVcontains(initiate)
p2847
I00
sVcontains(need)
p2848
I00
sVcontains(to)
p2849
I01
sVcontains(savings)
p2850
I00
sVcontains(get)
p2851
I00
sVcontains(booking)
p2852
I01
sVcontains(what)
p2853
I00
sVcontains(document)
p2854
I00
sVcontains(much)
p2855
I00
sVcontains(make)
p2856
I01
sVcontains(help)
p2857
I00
sVcontains('s)
p2858
I00
sVcontains(transaction)
p2859
I00
sVcontains(details)
p2860
I00
sVcontains(nice)
p2861
I00
sVcontains(amount)
p2862
I00
sVcontains(can)
p2863
I00
sS'Book hotel'
p2864
tp2865
a((dp2866
Vcontains(corporate)
p2867
I00
sVcontains(confirmation)
p2868
I00
sVcontains(of)
p2869
I00
sVcontains(current)
p2870
I00
sVcontains(start)
p2871
I00
sVcontains(proof)
p2872
I00
sVcontains(card)
p2873
I00
sVcontains(me)
p2874
I01
sVcontains(using)
p2875
I00
sVcontains(have)
p2876
I00
sVcontains(how)
p2877
I00
sVcontains(in)
p2878
I00
sVcontains(pay)
p2879
I00
sVcontains(ask)
p2880
I00
sVcontains(a)
p2881
I01
sVcontains(on)
p2882
I00
sVcontains(account)
p2883
I00
sVcontains(payment)
p2884
I00
sVcontains(the)
p2885
I00
sVcontains(use)
p2886
I00
sVcontains(Alexa)
p2887
I00
sVcontains(do)
p2888
I00
sVcontains(my)
p2889
I00
sVcontains(checking)
p2890
I00
sVcontains(for)
p2891
I01
sVcontains(transfer)
p2892
I00
sVcontains(starting)
p2893
I00
sVcontains(hotel)
p2894
I01
sVcontains(book)
p2895
I01
sVcontains(tell)
p2896
I00
sVcontains(city)
p2897
I00
sVcontains(I)
p2898
I00
sVcontains(an)
p2899
I00
sVcontains(is)
p2900
I00
sVcontains(doing)
p2901
I00
sVcontains(money)
p2902
I00
sVcontains(alexa)
p2903
I00
sVcontains(citi)
p2904
I00
sVcontains(online)
p2905
I00
sVcontains(give)
p2906
I00
sVcontains(statement)
p2907
I00
sVcontains(credit)
p2908
I00
sVcontains(balance)
p2909
I00
sVcontains(want)
p2910
I00
sVcontains(accomodation)
p2911
I00
sVcontains(i)
p2912
I00
sVcontains(confirm)
p2913
I00
sVcontains(bank)
p2914
I00
sVcontains(initiate)
p2915
I00
sVcontains(need)
p2916
I00
sVcontains(to)
p2917
I00
sVcontains(savings)
p2918
I00
sVcontains(get)
p2919
I00
sVcontains(booking)
p2920
I00
sVcontains(what)
p2921
I00
sVcontains(document)
p2922
I00
sVcontains(much)
p2923
I00
sVcontains(make)
p2924
I00
sVcontains(help)
p2925
I00
sVcontains('s)
p2926
I00
sVcontains(transaction)
p2927
I00
sVcontains(details)
p2928
I00
sVcontains(nice)
p2929
I00
sVcontains(amount)
p2930
I00
sVcontains(can)
p2931
I00
sS'Book hotel'
p2932
tp2933
a((dp2934
Vcontains(corporate)
p2935
I00
sVcontains(confirmation)
p2936
I00
sVcontains(of)
p2937
I00
sVcontains(current)
p2938
I00
sVcontains(start)
p2939
I00
sVcontains(proof)
p2940
I00
sVcontains(card)
p2941
I00
sVcontains(me)
p2942
I00
sVcontains(using)
p2943
I00
sVcontains(have)
p2944
I00
sVcontains(how)
p2945
I00
sVcontains(in)
p2946
I00
sVcontains(pay)
p2947
I00
sVcontains(ask)
p2948
I00
sVcontains(a)
p2949
I00
sVcontains(on)
p2950
I00
sVcontains(account)
p2951
I00
sVcontains(payment)
p2952
I00
sVcontains(the)
p2953
I00
sVcontains(use)
p2954
I00
sVcontains(Alexa)
p2955
I00
sVcontains(do)
p2956
I00
sVcontains(my)
p2957
I00
sVcontains(checking)
p2958
I00
sVcontains(for)
p2959
I00
sVcontains(transfer)
p2960
I00
sVcontains(starting)
p2961
I00
sVcontains(hotel)
p2962
I00
sVcontains(book)
p2963
I01
sVcontains(tell)
p2964
I00
sVcontains(city)
p2965
I00
sVcontains(I)
p2966
I00
sVcontains(an)
p2967
I00
sVcontains(is)
p2968
I00
sVcontains(doing)
p2969
I00
sVcontains(money)
p2970
I00
sVcontains(alexa)
p2971
I00
sVcontains(citi)
p2972
I00
sVcontains(online)
p2973
I00
sVcontains(give)
p2974
I00
sVcontains(statement)
p2975
I00
sVcontains(credit)
p2976
I00
sVcontains(balance)
p2977
I00
sVcontains(want)
p2978
I00
sVcontains(accomodation)
p2979
I01
sVcontains(i)
p2980
I00
sVcontains(confirm)
p2981
I00
sVcontains(bank)
p2982
I00
sVcontains(initiate)
p2983
I00
sVcontains(need)
p2984
I00
sVcontains(to)
p2985
I00
sVcontains(savings)
p2986
I00
sVcontains(get)
p2987
I00
sVcontains(booking)
p2988
I00
sVcontains(what)
p2989
I00
sVcontains(document)
p2990
I00
sVcontains(much)
p2991
I00
sVcontains(make)
p2992
I00
sVcontains(help)
p2993
I00
sVcontains('s)
p2994
I00
sVcontains(transaction)
p2995
I00
sVcontains(details)
p2996
I00
sVcontains(nice)
p2997
I00
sVcontains(amount)
p2998
I00
sVcontains(can)
p2999
I00
sS'Book hotel'
p3000
tp3001
a((dp3002
Vcontains(corporate)
p3003
I00
sVcontains(confirmation)
p3004
I00
sVcontains(of)
p3005
I00
sVcontains(current)
p3006
I00
sVcontains(start)
p3007
I00
sVcontains(proof)
p3008
I00
sVcontains(card)
p3009
I00
sVcontains(me)
p3010
I01
sVcontains(using)
p3011
I00
sVcontains(have)
p3012
I00
sVcontains(how)
p3013
I00
sVcontains(in)
p3014
I01
sVcontains(pay)
p3015
I00
sVcontains(ask)
p3016
I00
sVcontains(a)
p3017
I00
sVcontains(on)
p3018
I00
sVcontains(account)
p3019
I00
sVcontains(payment)
p3020
I00
sVcontains(the)
p3021
I00
sVcontains(use)
p3022
I00
sVcontains(Alexa)
p3023
I00
sVcontains(do)
p3024
I00
sVcontains(my)
p3025
I00
sVcontains(checking)
p3026
I00
sVcontains(for)
p3027
I00
sVcontains(transfer)
p3028
I00
sVcontains(starting)
p3029
I00
sVcontains(hotel)
p3030
I01
sVcontains(book)
p3031
I00
sVcontains(tell)
p3032
I00
sVcontains(city)
p3033
I00
sVcontains(I)
p3034
I00
sVcontains(an)
p3035
I00
sVcontains(is)
p3036
I00
sVcontains(doing)
p3037
I00
sVcontains(money)
p3038
I00
sVcontains(alexa)
p3039
I00
sVcontains(citi)
p3040
I00
sVcontains(online)
p3041
I00
sVcontains(give)
p3042
I00
sVcontains(statement)
p3043
I00
sVcontains(credit)
p3044
I00
sVcontains(balance)
p3045
I00
sVcontains(want)
p3046
I00
sVcontains(accomodation)
p3047
I00
sVcontains(i)
p3048
I00
sVcontains(confirm)
p3049
I00
sVcontains(bank)
p3050
I00
sVcontains(initiate)
p3051
I00
sVcontains(need)
p3052
I00
sVcontains(to)
p3053
I00
sVcontains(savings)
p3054
I00
sVcontains(get)
p3055
I00
sVcontains(booking)
p3056
I01
sVcontains(what)
p3057
I00
sVcontains(document)
p3058
I00
sVcontains(much)
p3059
I00
sVcontains(make)
p3060
I00
sVcontains(help)
p3061
I01
sVcontains('s)
p3062
I00
sVcontains(transaction)
p3063
I00
sVcontains(details)
p3064
I00
sVcontains(nice)
p3065
I00
sVcontains(amount)
p3066
I00
sVcontains(can)
p3067
I00
sS'Book hotel'
p3068
tp3069
a((dp3070
Vcontains(corporate)
p3071
I00
sVcontains(confirmation)
p3072
I00
sVcontains(of)
p3073
I00
sVcontains(current)
p3074
I00
sVcontains(start)
p3075
I00
sVcontains(proof)
p3076
I00
sVcontains(card)
p3077
I00
sVcontains(me)
p3078
I00
sVcontains(using)
p3079
I00
sVcontains(have)
p3080
I00
sVcontains(how)
p3081
I00
sVcontains(in)
p3082
I00
sVcontains(pay)
p3083
I00
sVcontains(ask)
p3084
I00
sVcontains(a)
p3085
I01
sVcontains(on)
p3086
I00
sVcontains(account)
p3087
I00
sVcontains(payment)
p3088
I00
sVcontains(the)
p3089
I00
sVcontains(use)
p3090
I00
sVcontains(Alexa)
p3091
I00
sVcontains(do)
p3092
I00
sVcontains(my)
p3093
I00
sVcontains(checking)
p3094
I00
sVcontains(for)
p3095
I00
sVcontains(transfer)
p3096
I00
sVcontains(starting)
p3097
I00
sVcontains(hotel)
p3098
I01
sVcontains(book)
p3099
I01
sVcontains(tell)
p3100
I00
sVcontains(city)
p3101
I00
sVcontains(I)
p3102
I00
sVcontains(an)
p3103
I00
sVcontains(is)
p3104
I00
sVcontains(doing)
p3105
I00
sVcontains(money)
p3106
I00
sVcontains(alexa)
p3107
I00
sVcontains(citi)
p3108
I00
sVcontains(online)
p3109
I00
sVcontains(give)
p3110
I00
sVcontains(statement)
p3111
I00
sVcontains(credit)
p3112
I00
sVcontains(balance)
p3113
I00
sVcontains(want)
p3114
I00
sVcontains(accomodation)
p3115
I00
sVcontains(i)
p3116
I00
sVcontains(confirm)
p3117
I00
sVcontains(bank)
p3118
I00
sVcontains(initiate)
p3119
I00
sVcontains(need)
p3120
I00
sVcontains(to)
p3121
I00
sVcontains(savings)
p3122
I00
sVcontains(get)
p3123
I00
sVcontains(booking)
p3124
I00
sVcontains(what)
p3125
I00
sVcontains(document)
p3126
I00
sVcontains(much)
p3127
I00
sVcontains(make)
p3128
I00
sVcontains(help)
p3129
I00
sVcontains('s)
p3130
I00
sVcontains(transaction)
p3131
I00
sVcontains(details)
p3132
I00
sVcontains(nice)
p3133
I01
sVcontains(amount)
p3134
I00
sVcontains(can)
p3135
I00
sS'Book hotel'
p3136
tp3137
a((dp3138
Vcontains(corporate)
p3139
I00
sVcontains(confirmation)
p3140
I00
sVcontains(of)
p3141
I01
sVcontains(current)
p3142
I00
sVcontains(start)
p3143
I00
sVcontains(proof)
p3144
I01
sVcontains(card)
p3145
I00
sVcontains(me)
p3146
I00
sVcontains(using)
p3147
I00
sVcontains(have)
p3148
I01
sVcontains(how)
p3149
I00
sVcontains(in)
p3150
I00
sVcontains(pay)
p3151
I00
sVcontains(ask)
p3152
I00
sVcontains(a)
p3153
I01
sVcontains(on)
p3154
I00
sVcontains(account)
p3155
I01
sVcontains(payment)
p3156
I00
sVcontains(the)
p3157
I00
sVcontains(use)
p3158
I00
sVcontains(Alexa)
p3159
I00
sVcontains(do)
p3160
I00
sVcontains(my)
p3161
I01
sVcontains(checking)
p3162
I00
sVcontains(for)
p3163
I00
sVcontains(transfer)
p3164
I00
sVcontains(starting)
p3165
I00
sVcontains(hotel)
p3166
I00
sVcontains(book)
p3167
I00
sVcontains(tell)
p3168
I00
sVcontains(city)
p3169
I00
sVcontains(I)
p3170
I00
sVcontains(an)
p3171
I00
sVcontains(is)
p3172
I00
sVcontains(doing)
p3173
I00
sVcontains(money)
p3174
I00
sVcontains(alexa)
p3175
I00
sVcontains(citi)
p3176
I00
sVcontains(online)
p3177
I00
sVcontains(give)
p3178
I00
sVcontains(statement)
p3179
I00
sVcontains(credit)
p3180
I00
sVcontains(balance)
p3181
I00
sVcontains(want)
p3182
I00
sVcontains(accomodation)
p3183
I00
sVcontains(i)
p3184
I01
sVcontains(confirm)
p3185
I00
sVcontains(bank)
p3186
I00
sVcontains(initiate)
p3187
I00
sVcontains(need)
p3188
I00
sVcontains(to)
p3189
I00
sVcontains(savings)
p3190
I00
sVcontains(get)
p3191
I00
sVcontains(booking)
p3192
I00
sVcontains(what)
p3193
I00
sVcontains(document)
p3194
I00
sVcontains(much)
p3195
I00
sVcontains(make)
p3196
I00
sVcontains(help)
p3197
I00
sVcontains('s)
p3198
I00
sVcontains(transaction)
p3199
I00
sVcontains(details)
p3200
I00
sVcontains(nice)
p3201
I00
sVcontains(amount)
p3202
I00
sVcontains(can)
p3203
I01
sS'Account Proof'
p3204
tp3205
a((dp3206
Vcontains(corporate)
p3207
I00
sVcontains(confirmation)
p3208
I00
sVcontains(of)
p3209
I00
sVcontains(current)
p3210
I00
sVcontains(start)
p3211
I00
sVcontains(proof)
p3212
I01
sVcontains(card)
p3213
I00
sVcontains(me)
p3214
I00
sVcontains(using)
p3215
I00
sVcontains(have)
p3216
I01
sVcontains(how)
p3217
I00
sVcontains(in)
p3218
I00
sVcontains(pay)
p3219
I00
sVcontains(ask)
p3220
I00
sVcontains(a)
p3221
I00
sVcontains(on)
p3222
I00
sVcontains(account)
p3223
I01
sVcontains(payment)
p3224
I00
sVcontains(the)
p3225
I00
sVcontains(use)
p3226
I00
sVcontains(Alexa)
p3227
I00
sVcontains(do)
p3228
I00
sVcontains(my)
p3229
I00
sVcontains(checking)
p3230
I00
sVcontains(for)
p3231
I00
sVcontains(transfer)
p3232
I00
sVcontains(starting)
p3233
I00
sVcontains(hotel)
p3234
I00
sVcontains(book)
p3235
I00
sVcontains(tell)
p3236
I00
sVcontains(city)
p3237
I00
sVcontains(I)
p3238
I00
sVcontains(an)
p3239
I01
sVcontains(is)
p3240
I00
sVcontains(doing)
p3241
I00
sVcontains(money)
p3242
I00
sVcontains(alexa)
p3243
I00
sVcontains(citi)
p3244
I00
sVcontains(online)
p3245
I00
sVcontains(give)
p3246
I00
sVcontains(statement)
p3247
I00
sVcontains(credit)
p3248
I00
sVcontains(balance)
p3249
I00
sVcontains(want)
p3250
I00
sVcontains(accomodation)
p3251
I00
sVcontains(i)
p3252
I01
sVcontains(confirm)
p3253
I00
sVcontains(bank)
p3254
I00
sVcontains(initiate)
p3255
I00
sVcontains(need)
p3256
I00
sVcontains(to)
p3257
I00
sVcontains(savings)
p3258
I00
sVcontains(get)
p3259
I00
sVcontains(booking)
p3260
I00
sVcontains(what)
p3261
I00
sVcontains(document)
p3262
I00
sVcontains(much)
p3263
I00
sVcontains(make)
p3264
I00
sVcontains(help)
p3265
I00
sVcontains('s)
p3266
I00
sVcontains(transaction)
p3267
I00
sVcontains(details)
p3268
I00
sVcontains(nice)
p3269
I00
sVcontains(amount)
p3270
I00
sVcontains(can)
p3271
I01
sS'Account Proof'
p3272
tp3273
a((dp3274
Vcontains(corporate)
p3275
I00
sVcontains(confirmation)
p3276
I00
sVcontains(of)
p3277
I00
sVcontains(current)
p3278
I00
sVcontains(start)
p3279
I00
sVcontains(proof)
p3280
I01
sVcontains(card)
p3281
I00
sVcontains(me)
p3282
I00
sVcontains(using)
p3283
I00
sVcontains(have)
p3284
I00
sVcontains(how)
p3285
I00
sVcontains(in)
p3286
I00
sVcontains(pay)
p3287
I00
sVcontains(ask)
p3288
I00
sVcontains(a)
p3289
I01
sVcontains(on)
p3290
I01
sVcontains(account)
p3291
I01
sVcontains(payment)
p3292
I00
sVcontains(the)
p3293
I00
sVcontains(use)
p3294
I00
sVcontains(Alexa)
p3295
I00
sVcontains(do)
p3296
I00
sVcontains(my)
p3297
I01
sVcontains(checking)
p3298
I00
sVcontains(for)
p3299
I00
sVcontains(transfer)
p3300
I00
sVcontains(starting)
p3301
I00
sVcontains(hotel)
p3302
I00
sVcontains(book)
p3303
I00
sVcontains(tell)
p3304
I00
sVcontains(city)
p3305
I00
sVcontains(I)
p3306
I00
sVcontains(an)
p3307
I00
sVcontains(is)
p3308
I00
sVcontains(doing)
p3309
I00
sVcontains(money)
p3310
I00
sVcontains(alexa)
p3311
I00
sVcontains(citi)
p3312
I00
sVcontains(online)
p3313
I00
sVcontains(give)
p3314
I00
sVcontains(statement)
p3315
I00
sVcontains(credit)
p3316
I00
sVcontains(balance)
p3317
I00
sVcontains(want)
p3318
I00
sVcontains(accomodation)
p3319
I00
sVcontains(i)
p3320
I01
sVcontains(confirm)
p3321
I00
sVcontains(bank)
p3322
I00
sVcontains(initiate)
p3323
I00
sVcontains(need)
p3324
I00
sVcontains(to)
p3325
I00
sVcontains(savings)
p3326
I00
sVcontains(get)
p3327
I01
sVcontains(booking)
p3328
I00
sVcontains(what)
p3329
I00
sVcontains(document)
p3330
I01
sVcontains(much)
p3331
I00
sVcontains(make)
p3332
I00
sVcontains(help)
p3333
I00
sVcontains('s)
p3334
I00
sVcontains(transaction)
p3335
I00
sVcontains(details)
p3336
I00
sVcontains(nice)
p3337
I00
sVcontains(amount)
p3338
I00
sVcontains(can)
p3339
I01
sS'Account Proof'
p3340
tp3341
a((dp3342
Vcontains(corporate)
p3343
I00
sVcontains(confirmation)
p3344
I00
sVcontains(of)
p3345
I00
sVcontains(current)
p3346
I00
sVcontains(start)
p3347
I00
sVcontains(proof)
p3348
I01
sVcontains(card)
p3349
I00
sVcontains(me)
p3350
I00
sVcontains(using)
p3351
I00
sVcontains(have)
p3352
I00
sVcontains(how)
p3353
I00
sVcontains(in)
p3354
I00
sVcontains(pay)
p3355
I00
sVcontains(ask)
p3356
I00
sVcontains(a)
p3357
I00
sVcontains(on)
p3358
I00
sVcontains(account)
p3359
I01
sVcontains(payment)
p3360
I00
sVcontains(the)
p3361
I00
sVcontains(use)
p3362
I00
sVcontains(Alexa)
p3363
I00
sVcontains(do)
p3364
I00
sVcontains(my)
p3365
I00
sVcontains(checking)
p3366
I00
sVcontains(for)
p3367
I00
sVcontains(transfer)
p3368
I00
sVcontains(starting)
p3369
I00
sVcontains(hotel)
p3370
I00
sVcontains(book)
p3371
I00
sVcontains(tell)
p3372
I00
sVcontains(city)
p3373
I00
sVcontains(I)
p3374
I00
sVcontains(an)
p3375
I00
sVcontains(is)
p3376
I00
sVcontains(doing)
p3377
I00
sVcontains(money)
p3378
I00
sVcontains(alexa)
p3379
I00
sVcontains(citi)
p3380
I00
sVcontains(online)
p3381
I00
sVcontains(give)
p3382
I00
sVcontains(statement)
p3383
I00
sVcontains(credit)
p3384
I00
sVcontains(balance)
p3385
I00
sVcontains(want)
p3386
I01
sVcontains(accomodation)
p3387
I00
sVcontains(i)
p3388
I01
sVcontains(confirm)
p3389
I00
sVcontains(bank)
p3390
I00
sVcontains(initiate)
p3391
I00
sVcontains(need)
p3392
I00
sVcontains(to)
p3393
I00
sVcontains(savings)
p3394
I00
sVcontains(get)
p3395
I00
sVcontains(booking)
p3396
I00
sVcontains(what)
p3397
I00
sVcontains(document)
p3398
I00
sVcontains(much)
p3399
I00
sVcontains(make)
p3400
I00
sVcontains(help)
p3401
I00
sVcontains('s)
p3402
I00
sVcontains(transaction)
p3403
I00
sVcontains(details)
p3404
I00
sVcontains(nice)
p3405
I00
sVcontains(amount)
p3406
I00
sVcontains(can)
p3407
I00
sS'Account Proof'
p3408
tp3409
a((dp3410
Vcontains(corporate)
p3411
I00
sVcontains(confirmation)
p3412
I00
sVcontains(of)
p3413
I00
sVcontains(current)
p3414
I00
sVcontains(start)
p3415
I00
sVcontains(proof)
p3416
I01
sVcontains(card)
p3417
I00
sVcontains(me)
p3418
I00
sVcontains(using)
p3419
I00
sVcontains(have)
p3420
I00
sVcontains(how)
p3421
I00
sVcontains(in)
p3422
I00
sVcontains(pay)
p3423
I00
sVcontains(ask)
p3424
I00
sVcontains(a)
p3425
I00
sVcontains(on)
p3426
I00
sVcontains(account)
p3427
I01
sVcontains(payment)
p3428
I00
sVcontains(the)
p3429
I00
sVcontains(use)
p3430
I00
sVcontains(Alexa)
p3431
I00
sVcontains(do)
p3432
I00
sVcontains(my)
p3433
I00
sVcontains(checking)
p3434
I00
sVcontains(for)
p3435
I00
sVcontains(transfer)
p3436
I00
sVcontains(starting)
p3437
I00
sVcontains(hotel)
p3438
I00
sVcontains(book)
p3439
I00
sVcontains(tell)
p3440
I00
sVcontains(city)
p3441
I00
sVcontains(I)
p3442
I00
sVcontains(an)
p3443
I00
sVcontains(is)
p3444
I00
sVcontains(doing)
p3445
I00
sVcontains(money)
p3446
I00
sVcontains(alexa)
p3447
I00
sVcontains(citi)
p3448
I00
sVcontains(online)
p3449
I00
sVcontains(give)
p3450
I00
sVcontains(statement)
p3451
I00
sVcontains(credit)
p3452
I00
sVcontains(balance)
p3453
I00
sVcontains(want)
p3454
I00
sVcontains(accomodation)
p3455
I00
sVcontains(i)
p3456
I00
sVcontains(confirm)
p3457
I00
sVcontains(bank)
p3458
I00
sVcontains(initiate)
p3459
I00
sVcontains(need)
p3460
I00
sVcontains(to)
p3461
I00
sVcontains(savings)
p3462
I00
sVcontains(get)
p3463
I00
sVcontains(booking)
p3464
I00
sVcontains(what)
p3465
I00
sVcontains(document)
p3466
I00
sVcontains(much)
p3467
I00
sVcontains(make)
p3468
I00
sVcontains(help)
p3469
I00
sVcontains('s)
p3470
I00
sVcontains(transaction)
p3471
I00
sVcontains(details)
p3472
I00
sVcontains(nice)
p3473
I00
sVcontains(amount)
p3474
I00
sVcontains(can)
p3475
I00
sS'Account Proof'
p3476
tp3477
a((dp3478
Vcontains(corporate)
p3479
I00
sVcontains(confirmation)
p3480
I00
sVcontains(of)
p3481
I01
sVcontains(current)
p3482
I00
sVcontains(start)
p3483
I00
sVcontains(proof)
p3484
I01
sVcontains(card)
p3485
I00
sVcontains(me)
p3486
I00
sVcontains(using)
p3487
I00
sVcontains(have)
p3488
I00
sVcontains(how)
p3489
I00
sVcontains(in)
p3490
I00
sVcontains(pay)
p3491
I00
sVcontains(ask)
p3492
I00
sVcontains(a)
p3493
I00
sVcontains(on)
p3494
I00
sVcontains(account)
p3495
I01
sVcontains(payment)
p3496
I00
sVcontains(the)
p3497
I00
sVcontains(use)
p3498
I00
sVcontains(Alexa)
p3499
I00
sVcontains(do)
p3500
I00
sVcontains(my)
p3501
I00
sVcontains(checking)
p3502
I00
sVcontains(for)
p3503
I00
sVcontains(transfer)
p3504
I00
sVcontains(starting)
p3505
I00
sVcontains(hotel)
p3506
I00
sVcontains(book)
p3507
I00
sVcontains(tell)
p3508
I00
sVcontains(city)
p3509
I00
sVcontains(I)
p3510
I00
sVcontains(an)
p3511
I00
sVcontains(is)
p3512
I00
sVcontains(doing)
p3513
I00
sVcontains(money)
p3514
I00
sVcontains(alexa)
p3515
I00
sVcontains(citi)
p3516
I00
sVcontains(online)
p3517
I00
sVcontains(give)
p3518
I01
sVcontains(statement)
p3519
I00
sVcontains(credit)
p3520
I00
sVcontains(balance)
p3521
I00
sVcontains(want)
p3522
I00
sVcontains(accomodation)
p3523
I00
sVcontains(i)
p3524
I00
sVcontains(confirm)
p3525
I00
sVcontains(bank)
p3526
I00
sVcontains(initiate)
p3527
I00
sVcontains(need)
p3528
I00
sVcontains(to)
p3529
I00
sVcontains(savings)
p3530
I00
sVcontains(get)
p3531
I00
sVcontains(booking)
p3532
I00
sVcontains(what)
p3533
I00
sVcontains(document)
p3534
I00
sVcontains(much)
p3535
I00
sVcontains(make)
p3536
I00
sVcontains(help)
p3537
I00
sVcontains('s)
p3538
I00
sVcontains(transaction)
p3539
I00
sVcontains(details)
p3540
I00
sVcontains(nice)
p3541
I00
sVcontains(amount)
p3542
I00
sVcontains(can)
p3543
I00
sS'Account Proof'
p3544
tp3545
a((dp3546
Vcontains(corporate)
p3547
I00
sVcontains(confirmation)
p3548
I01
sVcontains(of)
p3549
I00
sVcontains(current)
p3550
I00
sVcontains(start)
p3551
I00
sVcontains(proof)
p3552
I00
sVcontains(card)
p3553
I00
sVcontains(me)
p3554
I00
sVcontains(using)
p3555
I00
sVcontains(have)
p3556
I00
sVcontains(how)
p3557
I00
sVcontains(in)
p3558
I00
sVcontains(pay)
p3559
I00
sVcontains(ask)
p3560
I00
sVcontains(a)
p3561
I00
sVcontains(on)
p3562
I00
sVcontains(account)
p3563
I01
sVcontains(payment)
p3564
I00
sVcontains(the)
p3565
I00
sVcontains(use)
p3566
I00
sVcontains(Alexa)
p3567
I00
sVcontains(do)
p3568
I00
sVcontains(my)
p3569
I00
sVcontains(checking)
p3570
I00
sVcontains(for)
p3571
I00
sVcontains(transfer)
p3572
I00
sVcontains(starting)
p3573
I00
sVcontains(hotel)
p3574
I00
sVcontains(book)
p3575
I00
sVcontains(tell)
p3576
I00
sVcontains(city)
p3577
I00
sVcontains(I)
p3578
I00
sVcontains(an)
p3579
I00
sVcontains(is)
p3580
I00
sVcontains(doing)
p3581
I00
sVcontains(money)
p3582
I00
sVcontains(alexa)
p3583
I00
sVcontains(citi)
p3584
I00
sVcontains(online)
p3585
I00
sVcontains(give)
p3586
I00
sVcontains(statement)
p3587
I00
sVcontains(credit)
p3588
I00
sVcontains(balance)
p3589
I00
sVcontains(want)
p3590
I00
sVcontains(accomodation)
p3591
I00
sVcontains(i)
p3592
I00
sVcontains(confirm)
p3593
I00
sVcontains(bank)
p3594
I00
sVcontains(initiate)
p3595
I00
sVcontains(need)
p3596
I00
sVcontains(to)
p3597
I00
sVcontains(savings)
p3598
I00
sVcontains(get)
p3599
I00
sVcontains(booking)
p3600
I00
sVcontains(what)
p3601
I00
sVcontains(document)
p3602
I00
sVcontains(much)
p3603
I00
sVcontains(make)
p3604
I00
sVcontains(help)
p3605
I00
sVcontains('s)
p3606
I00
sVcontains(transaction)
p3607
I00
sVcontains(details)
p3608
I00
sVcontains(nice)
p3609
I00
sVcontains(amount)
p3610
I00
sVcontains(can)
p3611
I00
sS'Account Proof'
p3612
tp3613
a((dp3614
Vcontains(corporate)
p3615
I00
sVcontains(confirmation)
p3616
I01
sVcontains(of)
p3617
I00
sVcontains(current)
p3618
I00
sVcontains(start)
p3619
I00
sVcontains(proof)
p3620
I00
sVcontains(card)
p3621
I00
sVcontains(me)
p3622
I00
sVcontains(using)
p3623
I00
sVcontains(have)
p3624
I00
sVcontains(how)
p3625
I00
sVcontains(in)
p3626
I00
sVcontains(pay)
p3627
I00
sVcontains(ask)
p3628
I00
sVcontains(a)
p3629
I01
sVcontains(on)
p3630
I01
sVcontains(account)
p3631
I01
sVcontains(payment)
p3632
I00
sVcontains(the)
p3633
I00
sVcontains(use)
p3634
I00
sVcontains(Alexa)
p3635
I00
sVcontains(do)
p3636
I00
sVcontains(my)
p3637
I01
sVcontains(checking)
p3638
I00
sVcontains(for)
p3639
I00
sVcontains(transfer)
p3640
I00
sVcontains(starting)
p3641
I00
sVcontains(hotel)
p3642
I00
sVcontains(book)
p3643
I00
sVcontains(tell)
p3644
I00
sVcontains(city)
p3645
I00
sVcontains(I)
p3646
I00
sVcontains(an)
p3647
I00
sVcontains(is)
p3648
I00
sVcontains(doing)
p3649
I00
sVcontains(money)
p3650
I00
sVcontains(alexa)
p3651
I00
sVcontains(citi)
p3652
I00
sVcontains(online)
p3653
I00
sVcontains(give)
p3654
I00
sVcontains(statement)
p3655
I00
sVcontains(credit)
p3656
I00
sVcontains(balance)
p3657
I00
sVcontains(want)
p3658
I01
sVcontains(accomodation)
p3659
I00
sVcontains(i)
p3660
I01
sVcontains(confirm)
p3661
I00
sVcontains(bank)
p3662
I00
sVcontains(initiate)
p3663
I00
sVcontains(need)
p3664
I00
sVcontains(to)
p3665
I00
sVcontains(savings)
p3666
I00
sVcontains(get)
p3667
I00
sVcontains(booking)
p3668
I00
sVcontains(what)
p3669
I00
sVcontains(document)
p3670
I01
sVcontains(much)
p3671
I00
sVcontains(make)
p3672
I00
sVcontains(help)
p3673
I00
sVcontains('s)
p3674
I00
sVcontains(transaction)
p3675
I00
sVcontains(details)
p3676
I00
sVcontains(nice)
p3677
I00
sVcontains(amount)
p3678
I00
sVcontains(can)
p3679
I00
sS'Account Proof'
p3680
tp3681
a((dp3682
Vcontains(corporate)
p3683
I00
sVcontains(confirmation)
p3684
I01
sVcontains(of)
p3685
I00
sVcontains(current)
p3686
I00
sVcontains(start)
p3687
I00
sVcontains(proof)
p3688
I00
sVcontains(card)
p3689
I00
sVcontains(me)
p3690
I01
sVcontains(using)
p3691
I00
sVcontains(have)
p3692
I00
sVcontains(how)
p3693
I00
sVcontains(in)
p3694
I00
sVcontains(pay)
p3695
I00
sVcontains(ask)
p3696
I00
sVcontains(a)
p3697
I01
sVcontains(on)
p3698
I00
sVcontains(account)
p3699
I01
sVcontains(payment)
p3700
I00
sVcontains(the)
p3701
I00
sVcontains(use)
p3702
I00
sVcontains(Alexa)
p3703
I00
sVcontains(do)
p3704
I00
sVcontains(my)
p3705
I00
sVcontains(checking)
p3706
I00
sVcontains(for)
p3707
I00
sVcontains(transfer)
p3708
I00
sVcontains(starting)
p3709
I00
sVcontains(hotel)
p3710
I00
sVcontains(book)
p3711
I00
sVcontains(tell)
p3712
I00
sVcontains(city)
p3713
I00
sVcontains(I)
p3714
I00
sVcontains(an)
p3715
I00
sVcontains(is)
p3716
I00
sVcontains(doing)
p3717
I00
sVcontains(money)
p3718
I00
sVcontains(alexa)
p3719
I00
sVcontains(citi)
p3720
I00
sVcontains(online)
p3721
I00
sVcontains(give)
p3722
I01
sVcontains(statement)
p3723
I00
sVcontains(credit)
p3724
I00
sVcontains(balance)
p3725
I00
sVcontains(want)
p3726
I00
sVcontains(accomodation)
p3727
I00
sVcontains(i)
p3728
I00
sVcontains(confirm)
p3729
I00
sVcontains(bank)
p3730
I00
sVcontains(initiate)
p3731
I00
sVcontains(need)
p3732
I00
sVcontains(to)
p3733
I00
sVcontains(savings)
p3734
I00
sVcontains(get)
p3735
I00
sVcontains(booking)
p3736
I00
sVcontains(what)
p3737
I00
sVcontains(document)
p3738
I01
sVcontains(much)
p3739
I00
sVcontains(make)
p3740
I00
sVcontains(help)
p3741
I00
sVcontains('s)
p3742
I00
sVcontains(transaction)
p3743
I00
sVcontains(details)
p3744
I00
sVcontains(nice)
p3745
I00
sVcontains(amount)
p3746
I00
sVcontains(can)
p3747
I00
sS'Account Proof'
p3748
tp3749
a((dp3750
Vcontains(corporate)
p3751
I00
sVcontains(confirmation)
p3752
I00
sVcontains(of)
p3753
I00
sVcontains(current)
p3754
I00
sVcontains(start)
p3755
I00
sVcontains(proof)
p3756
I00
sVcontains(card)
p3757
I00
sVcontains(me)
p3758
I00
sVcontains(using)
p3759
I00
sVcontains(have)
p3760
I00
sVcontains(how)
p3761
I00
sVcontains(in)
p3762
I00
sVcontains(pay)
p3763
I00
sVcontains(ask)
p3764
I00
sVcontains(a)
p3765
I00
sVcontains(on)
p3766
I00
sVcontains(account)
p3767
I01
sVcontains(payment)
p3768
I00
sVcontains(the)
p3769
I00
sVcontains(use)
p3770
I00
sVcontains(Alexa)
p3771
I00
sVcontains(do)
p3772
I00
sVcontains(my)
p3773
I01
sVcontains(checking)
p3774
I00
sVcontains(for)
p3775
I00
sVcontains(transfer)
p3776
I00
sVcontains(starting)
p3777
I00
sVcontains(hotel)
p3778
I00
sVcontains(book)
p3779
I00
sVcontains(tell)
p3780
I00
sVcontains(city)
p3781
I00
sVcontains(I)
p3782
I00
sVcontains(an)
p3783
I00
sVcontains(is)
p3784
I00
sVcontains(doing)
p3785
I00
sVcontains(money)
p3786
I00
sVcontains(alexa)
p3787
I00
sVcontains(citi)
p3788
I00
sVcontains(online)
p3789
I00
sVcontains(give)
p3790
I00
sVcontains(statement)
p3791
I00
sVcontains(credit)
p3792
I00
sVcontains(balance)
p3793
I00
sVcontains(want)
p3794
I00
sVcontains(accomodation)
p3795
I00
sVcontains(i)
p3796
I00
sVcontains(confirm)
p3797
I01
sVcontains(bank)
p3798
I00
sVcontains(initiate)
p3799
I00
sVcontains(need)
p3800
I00
sVcontains(to)
p3801
I00
sVcontains(savings)
p3802
I00
sVcontains(get)
p3803
I00
sVcontains(booking)
p3804
I00
sVcontains(what)
p3805
I00
sVcontains(document)
p3806
I00
sVcontains(much)
p3807
I00
sVcontains(make)
p3808
I00
sVcontains(help)
p3809
I00
sVcontains('s)
p3810
I00
sVcontains(transaction)
p3811
I00
sVcontains(details)
p3812
I00
sVcontains(nice)
p3813
I00
sVcontains(amount)
p3814
I00
sVcontains(can)
p3815
I00
sS'Account Proof'
p3816
tp3817
a((dp3818
Vcontains(corporate)
p3819
I00
sVcontains(confirmation)
p3820
I00
sVcontains(of)
p3821
I00
sVcontains(current)
p3822
I00
sVcontains(start)
p3823
I01
sVcontains(proof)
p3824
I00
sVcontains(card)
p3825
I00
sVcontains(me)
p3826
I00
sVcontains(using)
p3827
I00
sVcontains(have)
p3828
I00
sVcontains(how)
p3829
I01
sVcontains(in)
p3830
I00
sVcontains(pay)
p3831
I00
sVcontains(ask)
p3832
I00
sVcontains(a)
p3833
I00
sVcontains(on)
p3834
I00
sVcontains(account)
p3835
I00
sVcontains(payment)
p3836
I00
sVcontains(the)
p3837
I00
sVcontains(use)
p3838
I00
sVcontains(Alexa)
p3839
I00
sVcontains(do)
p3840
I01
sVcontains(my)
p3841
I00
sVcontains(checking)
p3842
I00
sVcontains(for)
p3843
I00
sVcontains(transfer)
p3844
I00
sVcontains(starting)
p3845
I00
sVcontains(hotel)
p3846
I00
sVcontains(book)
p3847
I00
sVcontains(tell)
p3848
I00
sVcontains(city)
p3849
I00
sVcontains(I)
p3850
I00
sVcontains(an)
p3851
I01
sVcontains(is)
p3852
I00
sVcontains(doing)
p3853
I00
sVcontains(money)
p3854
I00
sVcontains(alexa)
p3855
I00
sVcontains(citi)
p3856
I00
sVcontains(online)
p3857
I01
sVcontains(give)
p3858
I00
sVcontains(statement)
p3859
I00
sVcontains(credit)
p3860
I00
sVcontains(balance)
p3861
I00
sVcontains(want)
p3862
I00
sVcontains(accomodation)
p3863
I00
sVcontains(i)
p3864
I01
sVcontains(confirm)
p3865
I00
sVcontains(bank)
p3866
I00
sVcontains(initiate)
p3867
I00
sVcontains(need)
p3868
I00
sVcontains(to)
p3869
I00
sVcontains(savings)
p3870
I00
sVcontains(get)
p3871
I00
sVcontains(booking)
p3872
I00
sVcontains(what)
p3873
I00
sVcontains(document)
p3874
I00
sVcontains(much)
p3875
I00
sVcontains(make)
p3876
I00
sVcontains(help)
p3877
I00
sVcontains('s)
p3878
I00
sVcontains(transaction)
p3879
I01
sVcontains(details)
p3880
I00
sVcontains(nice)
p3881
I00
sVcontains(amount)
p3882
I00
sVcontains(can)
p3883
I00
sS'Start video'
p3884
tp3885
a((dp3886
Vcontains(corporate)
p3887
I00
sVcontains(confirmation)
p3888
I00
sVcontains(of)
p3889
I00
sVcontains(current)
p3890
I00
sVcontains(start)
p3891
I00
sVcontains(proof)
p3892
I00
sVcontains(card)
p3893
I00
sVcontains(me)
p3894
I00
sVcontains(using)
p3895
I00
sVcontains(have)
p3896
I00
sVcontains(how)
p3897
I00
sVcontains(in)
p3898
I01
sVcontains(pay)
p3899
I00
sVcontains(ask)
p3900
I00
sVcontains(a)
p3901
I00
sVcontains(on)
p3902
I00
sVcontains(account)
p3903
I00
sVcontains(payment)
p3904
I00
sVcontains(the)
p3905
I00
sVcontains(use)
p3906
I00
sVcontains(Alexa)
p3907
I00
sVcontains(do)
p3908
I00
sVcontains(my)
p3909
I00
sVcontains(checking)
p3910
I00
sVcontains(for)
p3911
I00
sVcontains(transfer)
p3912
I00
sVcontains(starting)
p3913
I00
sVcontains(hotel)
p3914
I00
sVcontains(book)
p3915
I00
sVcontains(tell)
p3916
I00
sVcontains(city)
p3917
I00
sVcontains(I)
p3918
I00
sVcontains(an)
p3919
I00
sVcontains(is)
p3920
I00
sVcontains(doing)
p3921
I00
sVcontains(money)
p3922
I00
sVcontains(alexa)
p3923
I00
sVcontains(citi)
p3924
I01
sVcontains(online)
p3925
I01
sVcontains(give)
p3926
I00
sVcontains(statement)
p3927
I00
sVcontains(credit)
p3928
I00
sVcontains(balance)
p3929
I00
sVcontains(want)
p3930
I01
sVcontains(accomodation)
p3931
I00
sVcontains(i)
p3932
I01
sVcontains(confirm)
p3933
I00
sVcontains(bank)
p3934
I01
sVcontains(initiate)
p3935
I00
sVcontains(need)
p3936
I00
sVcontains(to)
p3937
I00
sVcontains(savings)
p3938
I00
sVcontains(get)
p3939
I00
sVcontains(booking)
p3940
I00
sVcontains(what)
p3941
I00
sVcontains(document)
p3942
I00
sVcontains(much)
p3943
I00
sVcontains(make)
p3944
I00
sVcontains(help)
p3945
I01
sVcontains('s)
p3946
I00
sVcontains(transaction)
p3947
I00
sVcontains(details)
p3948
I00
sVcontains(nice)
p3949
I00
sVcontains(amount)
p3950
I00
sVcontains(can)
p3951
I00
sS'Start video'
p3952
tp3953
a((dp3954
Vcontains(corporate)
p3955
I00
sVcontains(confirmation)
p3956
I00
sVcontains(of)
p3957
I00
sVcontains(current)
p3958
I00
sVcontains(start)
p3959
I01
sVcontains(proof)
p3960
I00
sVcontains(card)
p3961
I00
sVcontains(me)
p3962
I00
sVcontains(using)
p3963
I00
sVcontains(have)
p3964
I00
sVcontains(how)
p3965
I01
sVcontains(in)
p3966
I00
sVcontains(pay)
p3967
I00
sVcontains(ask)
p3968
I00
sVcontains(a)
p3969
I00
sVcontains(on)
p3970
I00
sVcontains(account)
p3971
I01
sVcontains(payment)
p3972
I00
sVcontains(the)
p3973
I00
sVcontains(use)
p3974
I00
sVcontains(Alexa)
p3975
I00
sVcontains(do)
p3976
I01
sVcontains(my)
p3977
I00
sVcontains(checking)
p3978
I00
sVcontains(for)
p3979
I00
sVcontains(transfer)
p3980
I00
sVcontains(starting)
p3981
I00
sVcontains(hotel)
p3982
I00
sVcontains(book)
p3983
I00
sVcontains(tell)
p3984
I00
sVcontains(city)
p3985
I00
sVcontains(I)
p3986
I00
sVcontains(an)
p3987
I01
sVcontains(is)
p3988
I00
sVcontains(doing)
p3989
I00
sVcontains(money)
p3990
I00
sVcontains(alexa)
p3991
I00
sVcontains(citi)
p3992
I00
sVcontains(online)
p3993
I00
sVcontains(give)
p3994
I00
sVcontains(statement)
p3995
I00
sVcontains(credit)
p3996
I00
sVcontains(balance)
p3997
I00
sVcontains(want)
p3998
I00
sVcontains(accomodation)
p3999
I00
sVcontains(i)
p4000
I01
sVcontains(confirm)
p4001
I00
sVcontains(bank)
p4002
I00
sVcontains(initiate)
p4003
I00
sVcontains(need)
p4004
I00
sVcontains(to)
p4005
I00
sVcontains(savings)
p4006
I00
sVcontains(get)
p4007
I00
sVcontains(booking)
p4008
I00
sVcontains(what)
p4009
I00
sVcontains(document)
p4010
I00
sVcontains(much)
p4011
I00
sVcontains(make)
p4012
I00
sVcontains(help)
p4013
I00
sVcontains('s)
p4014
I00
sVcontains(transaction)
p4015
I00
sVcontains(details)
p4016
I00
sVcontains(nice)
p4017
I00
sVcontains(amount)
p4018
I00
sVcontains(can)
p4019
I00
sS'Start video'
p4020
tp4021
a((dp4022
Vcontains(corporate)
p4023
I00
sVcontains(confirmation)
p4024
I00
sVcontains(of)
p4025
I00
sVcontains(current)
p4026
I00
sVcontains(start)
p4027
I00
sVcontains(proof)
p4028
I00
sVcontains(card)
p4029
I00
sVcontains(me)
p4030
I01
sVcontains(using)
p4031
I01
sVcontains(have)
p4032
I00
sVcontains(how)
p4033
I00
sVcontains(in)
p4034
I01
sVcontains(pay)
p4035
I00
sVcontains(ask)
p4036
I00
sVcontains(a)
p4037
I00
sVcontains(on)
p4038
I00
sVcontains(account)
p4039
I00
sVcontains(payment)
p4040
I00
sVcontains(the)
p4041
I00
sVcontains(use)
p4042
I00
sVcontains(Alexa)
p4043
I00
sVcontains(do)
p4044
I00
sVcontains(my)
p4045
I00
sVcontains(checking)
p4046
I00
sVcontains(for)
p4047
I00
sVcontains(transfer)
p4048
I00
sVcontains(starting)
p4049
I00
sVcontains(hotel)
p4050
I00
sVcontains(book)
p4051
I00
sVcontains(tell)
p4052
I00
sVcontains(city)
p4053
I00
sVcontains(I)
p4054
I00
sVcontains(an)
p4055
I00
sVcontains(is)
p4056
I00
sVcontains(doing)
p4057
I00
sVcontains(money)
p4058
I00
sVcontains(alexa)
p4059
I00
sVcontains(citi)
p4060
I01
sVcontains(online)
p4061
I01
sVcontains(give)
p4062
I00
sVcontains(statement)
p4063
I00
sVcontains(credit)
p4064
I00
sVcontains(balance)
p4065
I00
sVcontains(want)
p4066
I00
sVcontains(accomodation)
p4067
I00
sVcontains(i)
p4068
I00
sVcontains(confirm)
p4069
I00
sVcontains(bank)
p4070
I00
sVcontains(initiate)
p4071
I00
sVcontains(need)
p4072
I00
sVcontains(to)
p4073
I00
sVcontains(savings)
p4074
I00
sVcontains(get)
p4075
I00
sVcontains(booking)
p4076
I00
sVcontains(what)
p4077
I00
sVcontains(document)
p4078
I00
sVcontains(much)
p4079
I00
sVcontains(make)
p4080
I00
sVcontains(help)
p4081
I01
sVcontains('s)
p4082
I00
sVcontains(transaction)
p4083
I00
sVcontains(details)
p4084
I00
sVcontains(nice)
p4085
I00
sVcontains(amount)
p4086
I00
sVcontains(can)
p4087
I00
sS'Start video'
p4088
tp4089
a((dp4090
Vcontains(corporate)
p4091
I00
sVcontains(confirmation)
p4092
I00
sVcontains(of)
p4093
I00
sVcontains(current)
p4094
I00
sVcontains(start)
p4095
I01
sVcontains(proof)
p4096
I00
sVcontains(card)
p4097
I00
sVcontains(me)
p4098
I01
sVcontains(using)
p4099
I00
sVcontains(have)
p4100
I00
sVcontains(how)
p4101
I00
sVcontains(in)
p4102
I00
sVcontains(pay)
p4103
I00
sVcontains(ask)
p4104
I00
sVcontains(a)
p4105
I00
sVcontains(on)
p4106
I00
sVcontains(account)
p4107
I01
sVcontains(payment)
p4108
I00
sVcontains(the)
p4109
I00
sVcontains(use)
p4110
I00
sVcontains(Alexa)
p4111
I00
sVcontains(do)
p4112
I00
sVcontains(my)
p4113
I00
sVcontains(checking)
p4114
I00
sVcontains(for)
p4115
I00
sVcontains(transfer)
p4116
I00
sVcontains(starting)
p4117
I00
sVcontains(hotel)
p4118
I00
sVcontains(book)
p4119
I00
sVcontains(tell)
p4120
I00
sVcontains(city)
p4121
I00
sVcontains(I)
p4122
I00
sVcontains(an)
p4123
I01
sVcontains(is)
p4124
I00
sVcontains(doing)
p4125
I00
sVcontains(money)
p4126
I00
sVcontains(alexa)
p4127
I00
sVcontains(citi)
p4128
I00
sVcontains(online)
p4129
I00
sVcontains(give)
p4130
I00
sVcontains(statement)
p4131
I00
sVcontains(credit)
p4132
I00
sVcontains(balance)
p4133
I00
sVcontains(want)
p4134
I00
sVcontains(accomodation)
p4135
I00
sVcontains(i)
p4136
I00
sVcontains(confirm)
p4137
I00
sVcontains(bank)
p4138
I00
sVcontains(initiate)
p4139
I00
sVcontains(need)
p4140
I00
sVcontains(to)
p4141
I01
sVcontains(savings)
p4142
I00
sVcontains(get)
p4143
I00
sVcontains(booking)
p4144
I00
sVcontains(what)
p4145
I00
sVcontains(document)
p4146
I00
sVcontains(much)
p4147
I00
sVcontains(make)
p4148
I00
sVcontains(help)
p4149
I01
sVcontains('s)
p4150
I00
sVcontains(transaction)
p4151
I00
sVcontains(details)
p4152
I00
sVcontains(nice)
p4153
I00
sVcontains(amount)
p4154
I00
sVcontains(can)
p4155
I00
sS'Start video'
p4156
tp4157
a((dp4158
Vcontains(corporate)
p4159
I00
sVcontains(confirmation)
p4160
I00
sVcontains(of)
p4161
I00
sVcontains(current)
p4162
I00
sVcontains(start)
p4163
I00
sVcontains(proof)
p4164
I00
sVcontains(card)
p4165
I00
sVcontains(me)
p4166
I01
sVcontains(using)
p4167
I00
sVcontains(have)
p4168
I00
sVcontains(how)
p4169
I00
sVcontains(in)
p4170
I01
sVcontains(pay)
p4171
I00
sVcontains(ask)
p4172
I00
sVcontains(a)
p4173
I00
sVcontains(on)
p4174
I00
sVcontains(account)
p4175
I00
sVcontains(payment)
p4176
I00
sVcontains(the)
p4177
I00
sVcontains(use)
p4178
I00
sVcontains(Alexa)
p4179
I00
sVcontains(do)
p4180
I00
sVcontains(my)
p4181
I00
sVcontains(checking)
p4182
I00
sVcontains(for)
p4183
I00
sVcontains(transfer)
p4184
I00
sVcontains(starting)
p4185
I00
sVcontains(hotel)
p4186
I00
sVcontains(book)
p4187
I00
sVcontains(tell)
p4188
I00
sVcontains(city)
p4189
I00
sVcontains(I)
p4190
I00
sVcontains(an)
p4191
I01
sVcontains(is)
p4192
I00
sVcontains(doing)
p4193
I01
sVcontains(money)
p4194
I00
sVcontains(alexa)
p4195
I00
sVcontains(citi)
p4196
I00
sVcontains(online)
p4197
I01
sVcontains(give)
p4198
I00
sVcontains(statement)
p4199
I00
sVcontains(credit)
p4200
I00
sVcontains(balance)
p4201
I00
sVcontains(want)
p4202
I00
sVcontains(accomodation)
p4203
I00
sVcontains(i)
p4204
I00
sVcontains(confirm)
p4205
I00
sVcontains(bank)
p4206
I00
sVcontains(initiate)
p4207
I00
sVcontains(need)
p4208
I00
sVcontains(to)
p4209
I00
sVcontains(savings)
p4210
I00
sVcontains(get)
p4211
I00
sVcontains(booking)
p4212
I00
sVcontains(what)
p4213
I00
sVcontains(document)
p4214
I00
sVcontains(much)
p4215
I00
sVcontains(make)
p4216
I00
sVcontains(help)
p4217
I01
sVcontains('s)
p4218
I00
sVcontains(transaction)
p4219
I01
sVcontains(details)
p4220
I00
sVcontains(nice)
p4221
I00
sVcontains(amount)
p4222
I00
sVcontains(can)
p4223
I00
sS'Start video'
p4224
tp4225
a((dp4226
Vcontains(corporate)
p4227
I00
sVcontains(confirmation)
p4228
I00
sVcontains(of)
p4229
I00
sVcontains(current)
p4230
I00
sVcontains(start)
p4231
I00
sVcontains(proof)
p4232
I00
sVcontains(card)
p4233
I00
sVcontains(me)
p4234
I00
sVcontains(using)
p4235
I00
sVcontains(have)
p4236
I00
sVcontains(how)
p4237
I01
sVcontains(in)
p4238
I00
sVcontains(pay)
p4239
I00
sVcontains(ask)
p4240
I00
sVcontains(a)
p4241
I00
sVcontains(on)
p4242
I00
sVcontains(account)
p4243
I00
sVcontains(payment)
p4244
I00
sVcontains(the)
p4245
I00
sVcontains(use)
p4246
I01
sVcontains(Alexa)
p4247
I00
sVcontains(do)
p4248
I01
sVcontains(my)
p4249
I00
sVcontains(checking)
p4250
I00
sVcontains(for)
p4251
I00
sVcontains(transfer)
p4252
I00
sVcontains(starting)
p4253
I00
sVcontains(hotel)
p4254
I00
sVcontains(book)
p4255
I00
sVcontains(tell)
p4256
I00
sVcontains(city)
p4257
I00
sVcontains(I)
p4258
I00
sVcontains(an)
p4259
I00
sVcontains(is)
p4260
I00
sVcontains(doing)
p4261
I00
sVcontains(money)
p4262
I00
sVcontains(alexa)
p4263
I00
sVcontains(citi)
p4264
I01
sVcontains(online)
p4265
I01
sVcontains(give)
p4266
I00
sVcontains(statement)
p4267
I00
sVcontains(credit)
p4268
I00
sVcontains(balance)
p4269
I00
sVcontains(want)
p4270
I00
sVcontains(accomodation)
p4271
I00
sVcontains(i)
p4272
I01
sVcontains(confirm)
p4273
I00
sVcontains(bank)
p4274
I00
sVcontains(initiate)
p4275
I00
sVcontains(need)
p4276
I00
sVcontains(to)
p4277
I00
sVcontains(savings)
p4278
I00
sVcontains(get)
p4279
I00
sVcontains(booking)
p4280
I00
sVcontains(what)
p4281
I00
sVcontains(document)
p4282
I00
sVcontains(much)
p4283
I00
sVcontains(make)
p4284
I00
sVcontains(help)
p4285
I00
sVcontains('s)
p4286
I00
sVcontains(transaction)
p4287
I00
sVcontains(details)
p4288
I00
sVcontains(nice)
p4289
I00
sVcontains(amount)
p4290
I00
sVcontains(can)
p4291
I00
sS'Start video'
p4292
tp4293
a((dp4294
Vcontains(corporate)
p4295
I00
sVcontains(confirmation)
p4296
I00
sVcontains(of)
p4297
I00
sVcontains(current)
p4298
I00
sVcontains(start)
p4299
I00
sVcontains(proof)
p4300
I00
sVcontains(card)
p4301
I00
sVcontains(me)
p4302
I00
sVcontains(using)
p4303
I00
sVcontains(have)
p4304
I00
sVcontains(how)
p4305
I01
sVcontains(in)
p4306
I00
sVcontains(pay)
p4307
I00
sVcontains(ask)
p4308
I00
sVcontains(a)
p4309
I00
sVcontains(on)
p4310
I00
sVcontains(account)
p4311
I00
sVcontains(payment)
p4312
I00
sVcontains(the)
p4313
I00
sVcontains(use)
p4314
I01
sVcontains(Alexa)
p4315
I00
sVcontains(do)
p4316
I00
sVcontains(my)
p4317
I00
sVcontains(checking)
p4318
I00
sVcontains(for)
p4319
I00
sVcontains(transfer)
p4320
I00
sVcontains(starting)
p4321
I00
sVcontains(hotel)
p4322
I00
sVcontains(book)
p4323
I00
sVcontains(tell)
p4324
I00
sVcontains(city)
p4325
I00
sVcontains(I)
p4326
I00
sVcontains(an)
p4327
I00
sVcontains(is)
p4328
I00
sVcontains(doing)
p4329
I00
sVcontains(money)
p4330
I00
sVcontains(alexa)
p4331
I00
sVcontains(citi)
p4332
I01
sVcontains(online)
p4333
I01
sVcontains(give)
p4334
I00
sVcontains(statement)
p4335
I00
sVcontains(credit)
p4336
I00
sVcontains(balance)
p4337
I00
sVcontains(want)
p4338
I00
sVcontains(accomodation)
p4339
I00
sVcontains(i)
p4340
I00
sVcontains(confirm)
p4341
I00
sVcontains(bank)
p4342
I00
sVcontains(initiate)
p4343
I00
sVcontains(need)
p4344
I00
sVcontains(to)
p4345
I01
sVcontains(savings)
p4346
I00
sVcontains(get)
p4347
I00
sVcontains(booking)
p4348
I00
sVcontains(what)
p4349
I00
sVcontains(document)
p4350
I00
sVcontains(much)
p4351
I00
sVcontains(make)
p4352
I00
sVcontains(help)
p4353
I00
sVcontains('s)
p4354
I00
sVcontains(transaction)
p4355
I00
sVcontains(details)
p4356
I00
sVcontains(nice)
p4357
I00
sVcontains(amount)
p4358
I00
sVcontains(can)
p4359
I00
sS'Start video'
p4360
tp4361
a((dp4362
Vcontains(corporate)
p4363
I00
sVcontains(confirmation)
p4364
I00
sVcontains(of)
p4365
I00
sVcontains(current)
p4366
I00
sVcontains(start)
p4367
I00
sVcontains(proof)
p4368
I00
sVcontains(card)
p4369
I00
sVcontains(me)
p4370
I01
sVcontains(using)
p4371
I00
sVcontains(have)
p4372
I00
sVcontains(how)
p4373
I00
sVcontains(in)
p4374
I01
sVcontains(pay)
p4375
I00
sVcontains(ask)
p4376
I00
sVcontains(a)
p4377
I00
sVcontains(on)
p4378
I00
sVcontains(account)
p4379
I01
sVcontains(payment)
p4380
I00
sVcontains(the)
p4381
I00
sVcontains(use)
p4382
I00
sVcontains(Alexa)
p4383
I00
sVcontains(do)
p4384
I00
sVcontains(my)
p4385
I00
sVcontains(checking)
p4386
I00
sVcontains(for)
p4387
I00
sVcontains(transfer)
p4388
I00
sVcontains(starting)
p4389
I01
sVcontains(hotel)
p4390
I00
sVcontains(book)
p4391
I00
sVcontains(tell)
p4392
I00
sVcontains(city)
p4393
I00
sVcontains(I)
p4394
I00
sVcontains(an)
p4395
I01
sVcontains(is)
p4396
I00
sVcontains(doing)
p4397
I00
sVcontains(money)
p4398
I00
sVcontains(alexa)
p4399
I00
sVcontains(citi)
p4400
I00
sVcontains(online)
p4401
I00
sVcontains(give)
p4402
I00
sVcontains(statement)
p4403
I00
sVcontains(credit)
p4404
I00
sVcontains(balance)
p4405
I00
sVcontains(want)
p4406
I00
sVcontains(accomodation)
p4407
I00
sVcontains(i)
p4408
I00
sVcontains(confirm)
p4409
I00
sVcontains(bank)
p4410
I00
sVcontains(initiate)
p4411
I00
sVcontains(need)
p4412
I00
sVcontains(to)
p4413
I00
sVcontains(savings)
p4414
I00
sVcontains(get)
p4415
I00
sVcontains(booking)
p4416
I00
sVcontains(what)
p4417
I00
sVcontains(document)
p4418
I00
sVcontains(much)
p4419
I00
sVcontains(make)
p4420
I00
sVcontains(help)
p4421
I01
sVcontains('s)
p4422
I00
sVcontains(transaction)
p4423
I00
sVcontains(details)
p4424
I00
sVcontains(nice)
p4425
I00
sVcontains(amount)
p4426
I00
sVcontains(can)
p4427
I00
sS'Start video'
p4428
tp4429
a((dp4430
Vcontains(corporate)
p4431
I00
sVcontains(confirmation)
p4432
I00
sVcontains(of)
p4433
I00
sVcontains(current)
p4434
I00
sVcontains(start)
p4435
I00
sVcontains(proof)
p4436
I00
sVcontains(card)
p4437
I00
sVcontains(me)
p4438
I00
sVcontains(using)
p4439
I00
sVcontains(have)
p4440
I00
sVcontains(how)
p4441
I00
sVcontains(in)
p4442
I00
sVcontains(pay)
p4443
I00
sVcontains(ask)
p4444
I00
sVcontains(a)
p4445
I00
sVcontains(on)
p4446
I00
sVcontains(account)
p4447
I01
sVcontains(payment)
p4448
I00
sVcontains(the)
p4449
I00
sVcontains(use)
p4450
I00
sVcontains(Alexa)
p4451
I00
sVcontains(do)
p4452
I00
sVcontains(my)
p4453
I01
sVcontains(checking)
p4454
I00
sVcontains(for)
p4455
I00
sVcontains(transfer)
p4456
I00
sVcontains(starting)
p4457
I00
sVcontains(hotel)
p4458
I00
sVcontains(book)
p4459
I00
sVcontains(tell)
p4460
I00
sVcontains(city)
p4461
I00
sVcontains(I)
p4462
I00
sVcontains(an)
p4463
I00
sVcontains(is)
p4464
I00
sVcontains(doing)
p4465
I00
sVcontains(money)
p4466
I00
sVcontains(alexa)
p4467
I00
sVcontains(citi)
p4468
I00
sVcontains(online)
p4469
I00
sVcontains(give)
p4470
I00
sVcontains(statement)
p4471
I01
sVcontains(credit)
p4472
I00
sVcontains(balance)
p4473
I00
sVcontains(want)
p4474
I00
sVcontains(accomodation)
p4475
I00
sVcontains(i)
p4476
I01
sVcontains(confirm)
p4477
I00
sVcontains(bank)
p4478
I00
sVcontains(initiate)
p4479
I00
sVcontains(need)
p4480
I01
sVcontains(to)
p4481
I00
sVcontains(savings)
p4482
I00
sVcontains(get)
p4483
I00
sVcontains(booking)
p4484
I00
sVcontains(what)
p4485
I00
sVcontains(document)
p4486
I00
sVcontains(much)
p4487
I00
sVcontains(make)
p4488
I00
sVcontains(help)
p4489
I00
sVcontains('s)
p4490
I00
sVcontains(transaction)
p4491
I00
sVcontains(details)
p4492
I01
sVcontains(nice)
p4493
I00
sVcontains(amount)
p4494
I00
sVcontains(can)
p4495
I00
sS'Start video'
p4496
tp4497
a((dp4498
Vcontains(corporate)
p4499
I00
sVcontains(confirmation)
p4500
I00
sVcontains(of)
p4501
I00
sVcontains(current)
p4502
I00
sVcontains(start)
p4503
I00
sVcontains(proof)
p4504
I00
sVcontains(card)
p4505
I00
sVcontains(me)
p4506
I00
sVcontains(using)
p4507
I00
sVcontains(have)
p4508
I00
sVcontains(how)
p4509
I00
sVcontains(in)
p4510
I00
sVcontains(pay)
p4511
I00
sVcontains(ask)
p4512
I00
sVcontains(a)
p4513
I00
sVcontains(on)
p4514
I00
sVcontains(account)
p4515
I01
sVcontains(payment)
p4516
I00
sVcontains(the)
p4517
I00
sVcontains(use)
p4518
I00
sVcontains(Alexa)
p4519
I00
sVcontains(do)
p4520
I00
sVcontains(my)
p4521
I00
sVcontains(checking)
p4522
I00
sVcontains(for)
p4523
I00
sVcontains(transfer)
p4524
I00
sVcontains(starting)
p4525
I00
sVcontains(hotel)
p4526
I00
sVcontains(book)
p4527
I00
sVcontains(tell)
p4528
I00
sVcontains(city)
p4529
I00
sVcontains(I)
p4530
I00
sVcontains(an)
p4531
I00
sVcontains(is)
p4532
I00
sVcontains(doing)
p4533
I00
sVcontains(money)
p4534
I00
sVcontains(alexa)
p4535
I00
sVcontains(citi)
p4536
I00
sVcontains(online)
p4537
I00
sVcontains(give)
p4538
I00
sVcontains(statement)
p4539
I01
sVcontains(credit)
p4540
I00
sVcontains(balance)
p4541
I00
sVcontains(want)
p4542
I00
sVcontains(accomodation)
p4543
I00
sVcontains(i)
p4544
I00
sVcontains(confirm)
p4545
I00
sVcontains(bank)
p4546
I00
sVcontains(initiate)
p4547
I00
sVcontains(need)
p4548
I00
sVcontains(to)
p4549
I00
sVcontains(savings)
p4550
I00
sVcontains(get)
p4551
I00
sVcontains(booking)
p4552
I00
sVcontains(what)
p4553
I00
sVcontains(document)
p4554
I00
sVcontains(much)
p4555
I00
sVcontains(make)
p4556
I00
sVcontains(help)
p4557
I00
sVcontains('s)
p4558
I00
sVcontains(transaction)
p4559
I00
sVcontains(details)
p4560
I00
sVcontains(nice)
p4561
I00
sVcontains(amount)
p4562
I00
sVcontains(can)
p4563
I00
sS'Start video'
p4564
tp4565
a((dp4566
Vcontains(corporate)
p4567
I00
sVcontains(confirmation)
p4568
I00
sVcontains(of)
p4569
I00
sVcontains(current)
p4570
I00
sVcontains(start)
p4571
I00
sVcontains(proof)
p4572
I00
sVcontains(card)
p4573
I00
sVcontains(me)
p4574
I00
sVcontains(using)
p4575
I00
sVcontains(have)
p4576
I00
sVcontains(how)
p4577
I00
sVcontains(in)
p4578
I00
sVcontains(pay)
p4579
I00
sVcontains(ask)
p4580
I00
sVcontains(a)
p4581
I00
sVcontains(on)
p4582
I00
sVcontains(account)
p4583
I00
sVcontains(payment)
p4584
I00
sVcontains(the)
p4585
I00
sVcontains(use)
p4586
I00
sVcontains(Alexa)
p4587
I00
sVcontains(do)
p4588
I00
sVcontains(my)
p4589
I00
sVcontains(checking)
p4590
I00
sVcontains(for)
p4591
I00
sVcontains(transfer)
p4592
I00
sVcontains(starting)
p4593
I00
sVcontains(hotel)
p4594
I00
sVcontains(book)
p4595
I00
sVcontains(tell)
p4596
I00
sVcontains(city)
p4597
I00
sVcontains(I)
p4598
I00
sVcontains(an)
p4599
I00
sVcontains(is)
p4600
I00
sVcontains(doing)
p4601
I00
sVcontains(money)
p4602
I00
sVcontains(alexa)
p4603
I00
sVcontains(citi)
p4604
I00
sVcontains(online)
p4605
I00
sVcontains(give)
p4606
I00
sVcontains(statement)
p4607
I01
sVcontains(credit)
p4608
I00
sVcontains(balance)
p4609
I00
sVcontains(want)
p4610
I00
sVcontains(accomodation)
p4611
I00
sVcontains(i)
p4612
I00
sVcontains(confirm)
p4613
I00
sVcontains(bank)
p4614
I00
sVcontains(initiate)
p4615
I00
sVcontains(need)
p4616
I00
sVcontains(to)
p4617
I00
sVcontains(savings)
p4618
I00
sVcontains(get)
p4619
I00
sVcontains(booking)
p4620
I00
sVcontains(what)
p4621
I00
sVcontains(document)
p4622
I00
sVcontains(much)
p4623
I00
sVcontains(make)
p4624
I00
sVcontains(help)
p4625
I00
sVcontains('s)
p4626
I00
sVcontains(transaction)
p4627
I00
sVcontains(details)
p4628
I01
sVcontains(nice)
p4629
I00
sVcontains(amount)
p4630
I00
sVcontains(can)
p4631
I00
sS'Start video'
p4632
tp4633
a((dp4634
Vcontains(corporate)
p4635
I00
sVcontains(confirmation)
p4636
I00
sVcontains(of)
p4637
I00
sVcontains(current)
p4638
I00
sVcontains(start)
p4639
I00
sVcontains(proof)
p4640
I00
sVcontains(card)
p4641
I00
sVcontains(me)
p4642
I00
sVcontains(using)
p4643
I00
sVcontains(have)
p4644
I00
sVcontains(how)
p4645
I01
sVcontains(in)
p4646
I00
sVcontains(pay)
p4647
I00
sVcontains(ask)
p4648
I00
sVcontains(a)
p4649
I00
sVcontains(on)
p4650
I00
sVcontains(account)
p4651
I01
sVcontains(payment)
p4652
I00
sVcontains(the)
p4653
I00
sVcontains(use)
p4654
I00
sVcontains(Alexa)
p4655
I00
sVcontains(do)
p4656
I01
sVcontains(my)
p4657
I00
sVcontains(checking)
p4658
I00
sVcontains(for)
p4659
I00
sVcontains(transfer)
p4660
I00
sVcontains(starting)
p4661
I00
sVcontains(hotel)
p4662
I00
sVcontains(book)
p4663
I00
sVcontains(tell)
p4664
I00
sVcontains(city)
p4665
I00
sVcontains(I)
p4666
I00
sVcontains(an)
p4667
I00
sVcontains(is)
p4668
I00
sVcontains(doing)
p4669
I00
sVcontains(money)
p4670
I00
sVcontains(alexa)
p4671
I00
sVcontains(citi)
p4672
I00
sVcontains(online)
p4673
I00
sVcontains(give)
p4674
I00
sVcontains(statement)
p4675
I01
sVcontains(credit)
p4676
I00
sVcontains(balance)
p4677
I00
sVcontains(want)
p4678
I00
sVcontains(accomodation)
p4679
I00
sVcontains(i)
p4680
I01
sVcontains(confirm)
p4681
I00
sVcontains(bank)
p4682
I00
sVcontains(initiate)
p4683
I00
sVcontains(need)
p4684
I00
sVcontains(to)
p4685
I00
sVcontains(savings)
p4686
I00
sVcontains(get)
p4687
I01
sVcontains(booking)
p4688
I00
sVcontains(what)
p4689
I00
sVcontains(document)
p4690
I00
sVcontains(much)
p4691
I00
sVcontains(make)
p4692
I00
sVcontains(help)
p4693
I00
sVcontains('s)
p4694
I00
sVcontains(transaction)
p4695
I00
sVcontains(details)
p4696
I01
sVcontains(nice)
p4697
I00
sVcontains(amount)
p4698
I00
sVcontains(can)
p4699
I00
sS'Start video'
p4700
tp4701
asS'train_set'
p4702
(lp4703
(S'Alexa ask city bank how much money I have in my savings.\n'
p4704
g76
tp4705
a(S"Alexa ask city bank what's my checking account balance.\n"
p4706
g144
tp4707
a(S'my savings account balance\n'
p4708
g212
tp4709
a(S'tell me my savings account balance\n'
p4710
g280
tp4711
a(S'tell me my savings balance\n'
p4712
g348
tp4713
a(S'my current account balance\n'
p4714
g416
tp4715
a(S'tell me my current account balance\n'
p4716
g484
tp4717
a(S'tell me my current balance\n'
p4718
g552
tp4719
a(S'my checking account balance\n'
p4720
g620
tp4721
a(S'tell me my checking account balance\n'
p4722
g688
tp4723
a(S'tell me my checking balance\n'
p4724
g756
tp4725
a(S'Alexa ask city bank what is my checking account balance.\n'
p4726
g824
tp4727
a(S"alexa ask city bank what's the balance on my credit card\n"
p4728
g892
tp4729
a(S"what's the balance on my credit card\n"
p4730
g960
tp4731
a(S'what is the balance on my credit card\n'
p4732
g1028
tp4733
a(S'my credit card balance\n'
p4734
g1096
tp4735
a(S'what is the balance on my credit card\n'
p4736
g1164
tp4737
a(S'savings balance\n'
p4738
g1232
tp4739
a(S'credit balance\n'
p4740
g1300
tp4741
a(S'credit card balance\n'
p4742
g1368
tp4743
a(S'savings balance\n'
p4744
g1436
tp4745
a(S'transfer amount to\n'
p4746
g1504
tp4747
a(S'I want to transfer amount to\n'
p4748
g1572
tp4749
a(S'i want to make a payment\n'
p4750
g1640
tp4751
a(S'make payment\n'
p4752
g1708
tp4753
a(S'initiate a payment\n'
p4754
g1776
tp4755
a(S'do a payment transfer\n'
p4756
g1844
tp4757
a(S'pay money\n'
p4758
g1912
tp4759
a(S'I want to pay money\n'
p4760
g1980
tp4761
a(S'money payment\n'
p4762
g2048
tp4763
a(S'i want to initiate a payment\n'
p4764
g2116
tp4765
a(S'transfer money\n'
p4766
g2184
tp4767
a(S'I want to do corporate transfer\n'
p4768
g2252
tp4769
a(S'I want to do transaction\n'
p4770
g2320
tp4771
a(S'make a transaction\n'
p4772
g2388
tp4773
a(S'do a transaction for me\n'
p4774
g2456
tp4775
a(S'I want to do corporate transaction\n'
p4776
g2524
tp4777
a(S'corporate transaction\n'
p4778
g2592
tp4779
a(S'make a corporate transaction\n'
p4780
g2660
tp4781
a(S'initiate corporate transaction\n'
p4782
g2728
tp4783
a(S'book hotel\n'
p4784
g2796
tp4785
a(S'i want to make a hotel booking\n'
p4786
g2864
tp4787
a(S'book a hotel for me\n'
p4788
g2932
tp4789
a(S'book accomodation\n'
p4790
g3000
tp4791
a(S'help me in booking hotel\n'
p4792
g3068
tp4793
a(S'book a nice hotel\n'
p4794
g3136
tp4795
a(S'can i have a proof of my account\n'
p4796
g3204
tp4797
a(S'can i have an account proof\n'
p4798
g3272
tp4799
a(S'can i get a proof document on my account\n'
p4800
g3340
tp4801
a(S'i want account proof\n'
p4802
g3408
tp4803
a(S'account proof\n'
p4804
g3476
tp4805
a(S'give proof of account\n'
p4806
g3544
tp4807
a(S'account confirmation\n'
p4808
g3612
tp4809
a(S'i want a confirmation document on my account\n'
p4810
g3680
tp4811
a(S'give me a account confirmation document\n'
p4812
g3748
tp4813
a(S'confirm my account\n'
p4814
g3816
tp4815
a(S'how do i start an online transaction\n'
p4816
g3884
tp4817
a(S'i want help in citi bank online\n'
p4818
g3952
tp4819
a(S'how do i start an account\n'
p4820
g4020
tp4821
a(S'help me in using citi online\n'
p4822
g4088
tp4823
a(S'help me to start an account\n'
p4824
g4156
tp4825
a(S'help me in doing an online transaction\n'
p4826
g4224
tp4827
a(S'how do i use citi online\n'
p4828
g4292
tp4829
a(S'how to use citi online\n'
p4830
g4360
tp4831
a(S'help me in starting an account\n'
p4832
g4428
tp4833
a(S'i need my account statement details\n'
p4834
g4496
tp4835
a(S'account statement\n'
p4836
g4564
tp4837
a(S'statement details\n'
p4838
g4632
tp4839
a(S'how do i get account statement details\n'
p4840
g4700
tp4841
asS'feature_extractor'
p4842
ctextblob.classifiers
basic_extractor
p4843
sb.