ccopy_reg
_reconstructor
p0
(ctextblob.classifiers
NaiveBayesClassifier
p1
c__builtin__
object
p2
Ntp3
Rp4
(dp5
S'format_kwargs'
p6
(dp7
sS'train_features'
p8
(lp9
((dp10
Vcontains(corporate)
p11
I00
sVcontains(confirmation)
p12
I00
sVcontains(of)
p13
I00
sVcontains(current)
p14
I00
sVcontains(start)
p15
I00
sVcontains(card)
p16
I00
sVcontains(me)
p17
I00
sVcontains(using)
p18
I00
sVcontains(have)
p19
I01
sVcontains(how)
p20
I01
sVcontains(in)
p21
I01
sVcontains(pay)
p22
I00
sVcontains(ask)
p23
I01
sVcontains(a)
p24
I00
sVcontains(on)
p25
I00
sVcontains(account)
p26
I00
sVcontains(payment)
p27
I00
sVcontains(the)
p28
I00
sVcontains(use)
p29
I00
sVcontains(Alexa)
p30
I01
sVcontains(do)
p31
I00
sVcontains(my)
p32
I01
sVcontains(checking)
p33
I00
sVcontains(for)
p34
I00
sVcontains(transfer)
p35
I00
sVcontains(starting)
p36
I00
sVcontains(hotel)
p37
I00
sVcontains(book)
p38
I00
sVcontains(tell)
p39
I00
sVcontains(city)
p40
I01
sVcontains(I)
p41
I01
sVcontains(an)
p42
I00
sVcontains(is)
p43
I00
sVcontains(doing)
p44
I00
sVcontains(money)
p45
I01
sVcontains(alexa)
p46
I00
sVcontains(citi)
p47
I00
sVcontains(online)
p48
I00
sVcontains(give)
p49
I00
sVcontains(proof)
p50
I00
sVcontains(credit)
p51
I00
sVcontains(balance)
p52
I00
sVcontains(want)
p53
I00
sVcontains(accomodation)
p54
I00
sVcontains(i)
p55
I00
sVcontains(confirm)
p56
I00
sVcontains(bank)
p57
I01
sVcontains(initiate)
p58
I00
sVcontains(to)
p59
I00
sVcontains(savings)
p60
I01
sVcontains(get)
p61
I00
sVcontains(booking)
p62
I00
sVcontains(what)
p63
I00
sVcontains(document)
p64
I00
sVcontains(much)
p65
I01
sVcontains(make)
p66
I00
sVcontains(help)
p67
I00
sVcontains('s)
p68
I00
sVcontains(transaction)
p69
I00
sVcontains(nice)
p70
I00
sVcontains(amount)
p71
I00
sVcontains(can)
p72
I00
sS'Account intent'
p73
tp74
a((dp75
Vcontains(corporate)
p76
I00
sVcontains(confirmation)
p77
I00
sVcontains(of)
p78
I00
sVcontains(current)
p79
I00
sVcontains(start)
p80
I00
sVcontains(card)
p81
I00
sVcontains(me)
p82
I00
sVcontains(using)
p83
I00
sVcontains(have)
p84
I00
sVcontains(how)
p85
I00
sVcontains(in)
p86
I00
sVcontains(pay)
p87
I00
sVcontains(ask)
p88
I01
sVcontains(a)
p89
I00
sVcontains(on)
p90
I00
sVcontains(account)
p91
I01
sVcontains(payment)
p92
I00
sVcontains(the)
p93
I00
sVcontains(use)
p94
I00
sVcontains(Alexa)
p95
I01
sVcontains(do)
p96
I00
sVcontains(my)
p97
I01
sVcontains(checking)
p98
I01
sVcontains(for)
p99
I00
sVcontains(transfer)
p100
I00
sVcontains(starting)
p101
I00
sVcontains(hotel)
p102
I00
sVcontains(book)
p103
I00
sVcontains(tell)
p104
I00
sVcontains(city)
p105
I01
sVcontains(I)
p106
I00
sVcontains(an)
p107
I00
sVcontains(is)
p108
I00
sVcontains(doing)
p109
I00
sVcontains(money)
p110
I00
sVcontains(alexa)
p111
I00
sVcontains(citi)
p112
I00
sVcontains(online)
p113
I00
sVcontains(give)
p114
I00
sVcontains(proof)
p115
I00
sVcontains(credit)
p116
I00
sVcontains(balance)
p117
I01
sVcontains(want)
p118
I00
sVcontains(accomodation)
p119
I00
sVcontains(i)
p120
I00
sVcontains(confirm)
p121
I00
sVcontains(bank)
p122
I01
sVcontains(initiate)
p123
I00
sVcontains(to)
p124
I00
sVcontains(savings)
p125
I00
sVcontains(get)
p126
I00
sVcontains(booking)
p127
I00
sVcontains(what)
p128
I01
sVcontains(document)
p129
I00
sVcontains(much)
p130
I00
sVcontains(make)
p131
I00
sVcontains(help)
p132
I00
sVcontains('s)
p133
I00
sVcontains(transaction)
p134
I00
sVcontains(nice)
p135
I00
sVcontains(amount)
p136
I00
sVcontains(can)
p137
I00
sS'Account intent'
p138
tp139
a((dp140
Vcontains(corporate)
p141
I00
sVcontains(confirmation)
p142
I00
sVcontains(of)
p143
I00
sVcontains(current)
p144
I00
sVcontains(start)
p145
I00
sVcontains(card)
p146
I00
sVcontains(me)
p147
I00
sVcontains(using)
p148
I00
sVcontains(have)
p149
I00
sVcontains(how)
p150
I00
sVcontains(in)
p151
I00
sVcontains(pay)
p152
I00
sVcontains(ask)
p153
I00
sVcontains(a)
p154
I00
sVcontains(on)
p155
I00
sVcontains(account)
p156
I01
sVcontains(payment)
p157
I00
sVcontains(the)
p158
I00
sVcontains(use)
p159
I00
sVcontains(Alexa)
p160
I00
sVcontains(do)
p161
I00
sVcontains(my)
p162
I01
sVcontains(checking)
p163
I00
sVcontains(for)
p164
I00
sVcontains(transfer)
p165
I00
sVcontains(starting)
p166
I00
sVcontains(hotel)
p167
I00
sVcontains(book)
p168
I00
sVcontains(tell)
p169
I00
sVcontains(city)
p170
I00
sVcontains(I)
p171
I00
sVcontains(an)
p172
I00
sVcontains(is)
p173
I00
sVcontains(doing)
p174
I00
sVcontains(money)
p175
I00
sVcontains(alexa)
p176
I00
sVcontains(citi)
p177
I00
sVcontains(online)
p178
I00
sVcontains(give)
p179
I00
sVcontains(proof)
p180
I00
sVcontains(credit)
p181
I00
sVcontains(balance)
p182
I01
sVcontains(want)
p183
I00
sVcontains(accomodation)
p184
I00
sVcontains(i)
p185
I00
sVcontains(confirm)
p186
I00
sVcontains(bank)
p187
I00
sVcontains(initiate)
p188
I00
sVcontains(to)
p189
I00
sVcontains(savings)
p190
I01
sVcontains(get)
p191
I00
sVcontains(booking)
p192
I00
sVcontains(what)
p193
I00
sVcontains(document)
p194
I00
sVcontains(much)
p195
I00
sVcontains(make)
p196
I00
sVcontains(help)
p197
I00
sVcontains('s)
p198
I00
sVcontains(transaction)
p199
I00
sVcontains(nice)
p200
I00
sVcontains(amount)
p201
I00
sVcontains(can)
p202
I00
sS'Account intent'
p203
tp204
a((dp205
Vcontains(corporate)
p206
I00
sVcontains(confirmation)
p207
I00
sVcontains(of)
p208
I00
sVcontains(current)
p209
I00
sVcontains(start)
p210
I00
sVcontains(card)
p211
I00
sVcontains(me)
p212
I01
sVcontains(using)
p213
I00
sVcontains(have)
p214
I00
sVcontains(how)
p215
I00
sVcontains(in)
p216
I00
sVcontains(pay)
p217
I00
sVcontains(ask)
p218
I00
sVcontains(a)
p219
I00
sVcontains(on)
p220
I00
sVcontains(account)
p221
I01
sVcontains(payment)
p222
I00
sVcontains(the)
p223
I00
sVcontains(use)
p224
I00
sVcontains(Alexa)
p225
I00
sVcontains(do)
p226
I00
sVcontains(my)
p227
I01
sVcontains(checking)
p228
I00
sVcontains(for)
p229
I00
sVcontains(transfer)
p230
I00
sVcontains(starting)
p231
I00
sVcontains(hotel)
p232
I00
sVcontains(book)
p233
I00
sVcontains(tell)
p234
I01
sVcontains(city)
p235
I00
sVcontains(I)
p236
I00
sVcontains(an)
p237
I00
sVcontains(is)
p238
I00
sVcontains(doing)
p239
I00
sVcontains(money)
p240
I00
sVcontains(alexa)
p241
I00
sVcontains(citi)
p242
I00
sVcontains(online)
p243
I00
sVcontains(give)
p244
I00
sVcontains(proof)
p245
I00
sVcontains(credit)
p246
I00
sVcontains(balance)
p247
I01
sVcontains(want)
p248
I00
sVcontains(accomodation)
p249
I00
sVcontains(i)
p250
I00
sVcontains(confirm)
p251
I00
sVcontains(bank)
p252
I00
sVcontains(initiate)
p253
I00
sVcontains(to)
p254
I00
sVcontains(savings)
p255
I01
sVcontains(get)
p256
I00
sVcontains(booking)
p257
I00
sVcontains(what)
p258
I00
sVcontains(document)
p259
I00
sVcontains(much)
p260
I00
sVcontains(make)
p261
I00
sVcontains(help)
p262
I00
sVcontains('s)
p263
I00
sVcontains(transaction)
p264
I00
sVcontains(nice)
p265
I00
sVcontains(amount)
p266
I00
sVcontains(can)
p267
I00
sS'Account intent'
p268
tp269
a((dp270
Vcontains(corporate)
p271
I00
sVcontains(confirmation)
p272
I00
sVcontains(of)
p273
I00
sVcontains(current)
p274
I00
sVcontains(start)
p275
I00
sVcontains(card)
p276
I00
sVcontains(me)
p277
I01
sVcontains(using)
p278
I00
sVcontains(have)
p279
I00
sVcontains(how)
p280
I00
sVcontains(in)
p281
I00
sVcontains(pay)
p282
I00
sVcontains(ask)
p283
I00
sVcontains(a)
p284
I00
sVcontains(on)
p285
I00
sVcontains(account)
p286
I00
sVcontains(payment)
p287
I00
sVcontains(the)
p288
I00
sVcontains(use)
p289
I00
sVcontains(Alexa)
p290
I00
sVcontains(do)
p291
I00
sVcontains(my)
p292
I01
sVcontains(checking)
p293
I00
sVcontains(for)
p294
I00
sVcontains(transfer)
p295
I00
sVcontains(starting)
p296
I00
sVcontains(hotel)
p297
I00
sVcontains(book)
p298
I00
sVcontains(tell)
p299
I01
sVcontains(city)
p300
I00
sVcontains(I)
p301
I00
sVcontains(an)
p302
I00
sVcontains(is)
p303
I00
sVcontains(doing)
p304
I00
sVcontains(money)
p305
I00
sVcontains(alexa)
p306
I00
sVcontains(citi)
p307
I00
sVcontains(online)
p308
I00
sVcontains(give)
p309
I00
sVcontains(proof)
p310
I00
sVcontains(credit)
p311
I00
sVcontains(balance)
p312
I01
sVcontains(want)
p313
I00
sVcontains(accomodation)
p314
I00
sVcontains(i)
p315
I00
sVcontains(confirm)
p316
I00
sVcontains(bank)
p317
I00
sVcontains(initiate)
p318
I00
sVcontains(to)
p319
I00
sVcontains(savings)
p320
I01
sVcontains(get)
p321
I00
sVcontains(booking)
p322
I00
sVcontains(what)
p323
I00
sVcontains(document)
p324
I00
sVcontains(much)
p325
I00
sVcontains(make)
p326
I00
sVcontains(help)
p327
I00
sVcontains('s)
p328
I00
sVcontains(transaction)
p329
I00
sVcontains(nice)
p330
I00
sVcontains(amount)
p331
I00
sVcontains(can)
p332
I00
sS'Account intent'
p333
tp334
a((dp335
Vcontains(corporate)
p336
I00
sVcontains(confirmation)
p337
I00
sVcontains(of)
p338
I00
sVcontains(current)
p339
I01
sVcontains(start)
p340
I00
sVcontains(card)
p341
I00
sVcontains(me)
p342
I00
sVcontains(using)
p343
I00
sVcontains(have)
p344
I00
sVcontains(how)
p345
I00
sVcontains(in)
p346
I00
sVcontains(pay)
p347
I00
sVcontains(ask)
p348
I00
sVcontains(a)
p349
I00
sVcontains(on)
p350
I00
sVcontains(account)
p351
I01
sVcontains(payment)
p352
I00
sVcontains(the)
p353
I00
sVcontains(use)
p354
I00
sVcontains(Alexa)
p355
I00
sVcontains(do)
p356
I00
sVcontains(my)
p357
I01
sVcontains(checking)
p358
I00
sVcontains(for)
p359
I00
sVcontains(transfer)
p360
I00
sVcontains(starting)
p361
I00
sVcontains(hotel)
p362
I00
sVcontains(book)
p363
I00
sVcontains(tell)
p364
I00
sVcontains(city)
p365
I00
sVcontains(I)
p366
I00
sVcontains(an)
p367
I00
sVcontains(is)
p368
I00
sVcontains(doing)
p369
I00
sVcontains(money)
p370
I00
sVcontains(alexa)
p371
I00
sVcontains(citi)
p372
I00
sVcontains(online)
p373
I00
sVcontains(give)
p374
I00
sVcontains(proof)
p375
I00
sVcontains(credit)
p376
I00
sVcontains(balance)
p377
I01
sVcontains(want)
p378
I00
sVcontains(accomodation)
p379
I00
sVcontains(i)
p380
I00
sVcontains(confirm)
p381
I00
sVcontains(bank)
p382
I00
sVcontains(initiate)
p383
I00
sVcontains(to)
p384
I00
sVcontains(savings)
p385
I00
sVcontains(get)
p386
I00
sVcontains(booking)
p387
I00
sVcontains(what)
p388
I00
sVcontains(document)
p389
I00
sVcontains(much)
p390
I00
sVcontains(make)
p391
I00
sVcontains(help)
p392
I00
sVcontains('s)
p393
I00
sVcontains(transaction)
p394
I00
sVcontains(nice)
p395
I00
sVcontains(amount)
p396
I00
sVcontains(can)
p397
I00
sS'Account intent'
p398
tp399
a((dp400
Vcontains(corporate)
p401
I00
sVcontains(confirmation)
p402
I00
sVcontains(of)
p403
I00
sVcontains(current)
p404
I01
sVcontains(start)
p405
I00
sVcontains(card)
p406
I00
sVcontains(me)
p407
I01
sVcontains(using)
p408
I00
sVcontains(have)
p409
I00
sVcontains(how)
p410
I00
sVcontains(in)
p411
I00
sVcontains(pay)
p412
I00
sVcontains(ask)
p413
I00
sVcontains(a)
p414
I00
sVcontains(on)
p415
I00
sVcontains(account)
p416
I01
sVcontains(payment)
p417
I00
sVcontains(the)
p418
I00
sVcontains(use)
p419
I00
sVcontains(Alexa)
p420
I00
sVcontains(do)
p421
I00
sVcontains(my)
p422
I01
sVcontains(checking)
p423
I00
sVcontains(for)
p424
I00
sVcontains(transfer)
p425
I00
sVcontains(starting)
p426
I00
sVcontains(hotel)
p427
I00
sVcontains(book)
p428
I00
sVcontains(tell)
p429
I01
sVcontains(city)
p430
I00
sVcontains(I)
p431
I00
sVcontains(an)
p432
I00
sVcontains(is)
p433
I00
sVcontains(doing)
p434
I00
sVcontains(money)
p435
I00
sVcontains(alexa)
p436
I00
sVcontains(citi)
p437
I00
sVcontains(online)
p438
I00
sVcontains(give)
p439
I00
sVcontains(proof)
p440
I00
sVcontains(credit)
p441
I00
sVcontains(balance)
p442
I01
sVcontains(want)
p443
I00
sVcontains(accomodation)
p444
I00
sVcontains(i)
p445
I00
sVcontains(confirm)
p446
I00
sVcontains(bank)
p447
I00
sVcontains(initiate)
p448
I00
sVcontains(to)
p449
I00
sVcontains(savings)
p450
I00
sVcontains(get)
p451
I00
sVcontains(booking)
p452
I00
sVcontains(what)
p453
I00
sVcontains(document)
p454
I00
sVcontains(much)
p455
I00
sVcontains(make)
p456
I00
sVcontains(help)
p457
I00
sVcontains('s)
p458
I00
sVcontains(transaction)
p459
I00
sVcontains(nice)
p460
I00
sVcontains(amount)
p461
I00
sVcontains(can)
p462
I00
sS'Account intent'
p463
tp464
a((dp465
Vcontains(corporate)
p466
I00
sVcontains(confirmation)
p467
I00
sVcontains(of)
p468
I00
sVcontains(current)
p469
I01
sVcontains(start)
p470
I00
sVcontains(card)
p471
I00
sVcontains(me)
p472
I01
sVcontains(using)
p473
I00
sVcontains(have)
p474
I00
sVcontains(how)
p475
I00
sVcontains(in)
p476
I00
sVcontains(pay)
p477
I00
sVcontains(ask)
p478
I00
sVcontains(a)
p479
I00
sVcontains(on)
p480
I00
sVcontains(account)
p481
I00
sVcontains(payment)
p482
I00
sVcontains(the)
p483
I00
sVcontains(use)
p484
I00
sVcontains(Alexa)
p485
I00
sVcontains(do)
p486
I00
sVcontains(my)
p487
I01
sVcontains(checking)
p488
I00
sVcontains(for)
p489
I00
sVcontains(transfer)
p490
I00
sVcontains(starting)
p491
I00
sVcontains(hotel)
p492
I00
sVcontains(book)
p493
I00
sVcontains(tell)
p494
I01
sVcontains(city)
p495
I00
sVcontains(I)
p496
I00
sVcontains(an)
p497
I00
sVcontains(is)
p498
I00
sVcontains(doing)
p499
I00
sVcontains(money)
p500
I00
sVcontains(alexa)
p501
I00
sVcontains(citi)
p502
I00
sVcontains(online)
p503
I00
sVcontains(give)
p504
I00
sVcontains(proof)
p505
I00
sVcontains(credit)
p506
I00
sVcontains(balance)
p507
I01
sVcontains(want)
p508
I00
sVcontains(accomodation)
p509
I00
sVcontains(i)
p510
I00
sVcontains(confirm)
p511
I00
sVcontains(bank)
p512
I00
sVcontains(initiate)
p513
I00
sVcontains(to)
p514
I00
sVcontains(savings)
p515
I00
sVcontains(get)
p516
I00
sVcontains(booking)
p517
I00
sVcontains(what)
p518
I00
sVcontains(document)
p519
I00
sVcontains(much)
p520
I00
sVcontains(make)
p521
I00
sVcontains(help)
p522
I00
sVcontains('s)
p523
I00
sVcontains(transaction)
p524
I00
sVcontains(nice)
p525
I00
sVcontains(amount)
p526
I00
sVcontains(can)
p527
I00
sS'Account intent'
p528
tp529
a((dp530
Vcontains(corporate)
p531
I00
sVcontains(confirmation)
p532
I00
sVcontains(of)
p533
I00
sVcontains(current)
p534
I00
sVcontains(start)
p535
I00
sVcontains(card)
p536
I00
sVcontains(me)
p537
I00
sVcontains(using)
p538
I00
sVcontains(have)
p539
I00
sVcontains(how)
p540
I00
sVcontains(in)
p541
I00
sVcontains(pay)
p542
I00
sVcontains(ask)
p543
I00
sVcontains(a)
p544
I00
sVcontains(on)
p545
I00
sVcontains(account)
p546
I01
sVcontains(payment)
p547
I00
sVcontains(the)
p548
I00
sVcontains(use)
p549
I00
sVcontains(Alexa)
p550
I00
sVcontains(do)
p551
I00
sVcontains(my)
p552
I01
sVcontains(checking)
p553
I01
sVcontains(for)
p554
I00
sVcontains(transfer)
p555
I00
sVcontains(starting)
p556
I00
sVcontains(hotel)
p557
I00
sVcontains(book)
p558
I00
sVcontains(tell)
p559
I00
sVcontains(city)
p560
I00
sVcontains(I)
p561
I00
sVcontains(an)
p562
I00
sVcontains(is)
p563
I00
sVcontains(doing)
p564
I00
sVcontains(money)
p565
I00
sVcontains(alexa)
p566
I00
sVcontains(citi)
p567
I00
sVcontains(online)
p568
I00
sVcontains(give)
p569
I00
sVcontains(proof)
p570
I00
sVcontains(credit)
p571
I00
sVcontains(balance)
p572
I01
sVcontains(want)
p573
I00
sVcontains(accomodation)
p574
I00
sVcontains(i)
p575
I00
sVcontains(confirm)
p576
I00
sVcontains(bank)
p577
I00
sVcontains(initiate)
p578
I00
sVcontains(to)
p579
I00
sVcontains(savings)
p580
I00
sVcontains(get)
p581
I00
sVcontains(booking)
p582
I00
sVcontains(what)
p583
I00
sVcontains(document)
p584
I00
sVcontains(much)
p585
I00
sVcontains(make)
p586
I00
sVcontains(help)
p587
I00
sVcontains('s)
p588
I00
sVcontains(transaction)
p589
I00
sVcontains(nice)
p590
I00
sVcontains(amount)
p591
I00
sVcontains(can)
p592
I00
sS'Account intent'
p593
tp594
a((dp595
Vcontains(corporate)
p596
I00
sVcontains(confirmation)
p597
I00
sVcontains(of)
p598
I00
sVcontains(current)
p599
I00
sVcontains(start)
p600
I00
sVcontains(card)
p601
I00
sVcontains(me)
p602
I01
sVcontains(using)
p603
I00
sVcontains(have)
p604
I00
sVcontains(how)
p605
I00
sVcontains(in)
p606
I00
sVcontains(pay)
p607
I00
sVcontains(ask)
p608
I00
sVcontains(a)
p609
I00
sVcontains(on)
p610
I00
sVcontains(account)
p611
I01
sVcontains(payment)
p612
I00
sVcontains(the)
p613
I00
sVcontains(use)
p614
I00
sVcontains(Alexa)
p615
I00
sVcontains(do)
p616
I00
sVcontains(my)
p617
I01
sVcontains(checking)
p618
I01
sVcontains(for)
p619
I00
sVcontains(transfer)
p620
I00
sVcontains(starting)
p621
I00
sVcontains(hotel)
p622
I00
sVcontains(book)
p623
I00
sVcontains(tell)
p624
I01
sVcontains(city)
p625
I00
sVcontains(I)
p626
I00
sVcontains(an)
p627
I00
sVcontains(is)
p628
I00
sVcontains(doing)
p629
I00
sVcontains(money)
p630
I00
sVcontains(alexa)
p631
I00
sVcontains(citi)
p632
I00
sVcontains(online)
p633
I00
sVcontains(give)
p634
I00
sVcontains(proof)
p635
I00
sVcontains(credit)
p636
I00
sVcontains(balance)
p637
I01
sVcontains(want)
p638
I00
sVcontains(accomodation)
p639
I00
sVcontains(i)
p640
I00
sVcontains(confirm)
p641
I00
sVcontains(bank)
p642
I00
sVcontains(initiate)
p643
I00
sVcontains(to)
p644
I00
sVcontains(savings)
p645
I00
sVcontains(get)
p646
I00
sVcontains(booking)
p647
I00
sVcontains(what)
p648
I00
sVcontains(document)
p649
I00
sVcontains(much)
p650
I00
sVcontains(make)
p651
I00
sVcontains(help)
p652
I00
sVcontains('s)
p653
I00
sVcontains(transaction)
p654
I00
sVcontains(nice)
p655
I00
sVcontains(amount)
p656
I00
sVcontains(can)
p657
I00
sS'Account intent'
p658
tp659
a((dp660
Vcontains(corporate)
p661
I00
sVcontains(confirmation)
p662
I00
sVcontains(of)
p663
I00
sVcontains(current)
p664
I00
sVcontains(start)
p665
I00
sVcontains(card)
p666
I00
sVcontains(me)
p667
I01
sVcontains(using)
p668
I00
sVcontains(have)
p669
I00
sVcontains(how)
p670
I00
sVcontains(in)
p671
I00
sVcontains(pay)
p672
I00
sVcontains(ask)
p673
I00
sVcontains(a)
p674
I00
sVcontains(on)
p675
I00
sVcontains(account)
p676
I00
sVcontains(payment)
p677
I00
sVcontains(the)
p678
I00
sVcontains(use)
p679
I00
sVcontains(Alexa)
p680
I00
sVcontains(do)
p681
I00
sVcontains(my)
p682
I01
sVcontains(checking)
p683
I01
sVcontains(for)
p684
I00
sVcontains(transfer)
p685
I00
sVcontains(starting)
p686
I00
sVcontains(hotel)
p687
I00
sVcontains(book)
p688
I00
sVcontains(tell)
p689
I01
sVcontains(city)
p690
I00
sVcontains(I)
p691
I00
sVcontains(an)
p692
I00
sVcontains(is)
p693
I00
sVcontains(doing)
p694
I00
sVcontains(money)
p695
I00
sVcontains(alexa)
p696
I00
sVcontains(citi)
p697
I00
sVcontains(online)
p698
I00
sVcontains(give)
p699
I00
sVcontains(proof)
p700
I00
sVcontains(credit)
p701
I00
sVcontains(balance)
p702
I01
sVcontains(want)
p703
I00
sVcontains(accomodation)
p704
I00
sVcontains(i)
p705
I00
sVcontains(confirm)
p706
I00
sVcontains(bank)
p707
I00
sVcontains(initiate)
p708
I00
sVcontains(to)
p709
I00
sVcontains(savings)
p710
I00
sVcontains(get)
p711
I00
sVcontains(booking)
p712
I00
sVcontains(what)
p713
I00
sVcontains(document)
p714
I00
sVcontains(much)
p715
I00
sVcontains(make)
p716
I00
sVcontains(help)
p717
I00
sVcontains('s)
p718
I00
sVcontains(transaction)
p719
I00
sVcontains(nice)
p720
I00
sVcontains(amount)
p721
I00
sVcontains(can)
p722
I00
sS'Account intent'
p723
tp724
a((dp725
Vcontains(corporate)
p726
I00
sVcontains(confirmation)
p727
I00
sVcontains(of)
p728
I00
sVcontains(current)
p729
I00
sVcontains(start)
p730
I00
sVcontains(card)
p731
I00
sVcontains(me)
p732
I00
sVcontains(using)
p733
I00
sVcontains(have)
p734
I00
sVcontains(how)
p735
I00
sVcontains(in)
p736
I00
sVcontains(pay)
p737
I00
sVcontains(ask)
p738
I01
sVcontains(a)
p739
I00
sVcontains(on)
p740
I00
sVcontains(account)
p741
I01
sVcontains(payment)
p742
I00
sVcontains(the)
p743
I00
sVcontains(use)
p744
I00
sVcontains(Alexa)
p745
I01
sVcontains(do)
p746
I00
sVcontains(my)
p747
I01
sVcontains(checking)
p748
I01
sVcontains(for)
p749
I00
sVcontains(transfer)
p750
I00
sVcontains(starting)
p751
I00
sVcontains(hotel)
p752
I00
sVcontains(book)
p753
I00
sVcontains(tell)
p754
I00
sVcontains(city)
p755
I01
sVcontains(I)
p756
I00
sVcontains(an)
p757
I00
sVcontains(is)
p758
I01
sVcontains(doing)
p759
I00
sVcontains(money)
p760
I00
sVcontains(alexa)
p761
I00
sVcontains(citi)
p762
I00
sVcontains(online)
p763
I00
sVcontains(give)
p764
I00
sVcontains(proof)
p765
I00
sVcontains(credit)
p766
I00
sVcontains(balance)
p767
I01
sVcontains(want)
p768
I00
sVcontains(accomodation)
p769
I00
sVcontains(i)
p770
I00
sVcontains(confirm)
p771
I00
sVcontains(bank)
p772
I01
sVcontains(initiate)
p773
I00
sVcontains(to)
p774
I00
sVcontains(savings)
p775
I00
sVcontains(get)
p776
I00
sVcontains(booking)
p777
I00
sVcontains(what)
p778
I01
sVcontains(document)
p779
I00
sVcontains(much)
p780
I00
sVcontains(make)
p781
I00
sVcontains(help)
p782
I00
sVcontains('s)
p783
I00
sVcontains(transaction)
p784
I00
sVcontains(nice)
p785
I00
sVcontains(amount)
p786
I00
sVcontains(can)
p787
I00
sS'Account intent'
p788
tp789
a((dp790
Vcontains(corporate)
p791
I00
sVcontains(confirmation)
p792
I00
sVcontains(of)
p793
I00
sVcontains(current)
p794
I00
sVcontains(start)
p795
I00
sVcontains(card)
p796
I01
sVcontains(me)
p797
I00
sVcontains(using)
p798
I00
sVcontains(have)
p799
I00
sVcontains(how)
p800
I00
sVcontains(in)
p801
I00
sVcontains(pay)
p802
I00
sVcontains(ask)
p803
I01
sVcontains(a)
p804
I00
sVcontains(on)
p805
I01
sVcontains(account)
p806
I00
sVcontains(payment)
p807
I00
sVcontains(the)
p808
I01
sVcontains(use)
p809
I00
sVcontains(Alexa)
p810
I00
sVcontains(do)
p811
I00
sVcontains(my)
p812
I01
sVcontains(checking)
p813
I00
sVcontains(for)
p814
I00
sVcontains(transfer)
p815
I00
sVcontains(starting)
p816
I00
sVcontains(hotel)
p817
I00
sVcontains(book)
p818
I00
sVcontains(tell)
p819
I00
sVcontains(city)
p820
I01
sVcontains(I)
p821
I00
sVcontains(an)
p822
I00
sVcontains(is)
p823
I00
sVcontains(doing)
p824
I00
sVcontains(money)
p825
I00
sVcontains(alexa)
p826
I01
sVcontains(citi)
p827
I00
sVcontains(online)
p828
I00
sVcontains(give)
p829
I00
sVcontains(proof)
p830
I00
sVcontains(credit)
p831
I01
sVcontains(balance)
p832
I01
sVcontains(want)
p833
I00
sVcontains(accomodation)
p834
I00
sVcontains(i)
p835
I00
sVcontains(confirm)
p836
I00
sVcontains(bank)
p837
I01
sVcontains(initiate)
p838
I00
sVcontains(to)
p839
I00
sVcontains(savings)
p840
I00
sVcontains(get)
p841
I00
sVcontains(booking)
p842
I00
sVcontains(what)
p843
I01
sVcontains(document)
p844
I00
sVcontains(much)
p845
I00
sVcontains(make)
p846
I00
sVcontains(help)
p847
I00
sVcontains('s)
p848
I00
sVcontains(transaction)
p849
I00
sVcontains(nice)
p850
I00
sVcontains(amount)
p851
I00
sVcontains(can)
p852
I00
sS'Account intent'
p853
tp854
a((dp855
Vcontains(corporate)
p856
I00
sVcontains(confirmation)
p857
I00
sVcontains(of)
p858
I00
sVcontains(current)
p859
I00
sVcontains(start)
p860
I00
sVcontains(card)
p861
I01
sVcontains(me)
p862
I00
sVcontains(using)
p863
I00
sVcontains(have)
p864
I00
sVcontains(how)
p865
I00
sVcontains(in)
p866
I00
sVcontains(pay)
p867
I00
sVcontains(ask)
p868
I00
sVcontains(a)
p869
I00
sVcontains(on)
p870
I01
sVcontains(account)
p871
I00
sVcontains(payment)
p872
I00
sVcontains(the)
p873
I01
sVcontains(use)
p874
I00
sVcontains(Alexa)
p875
I00
sVcontains(do)
p876
I00
sVcontains(my)
p877
I01
sVcontains(checking)
p878
I00
sVcontains(for)
p879
I00
sVcontains(transfer)
p880
I00
sVcontains(starting)
p881
I00
sVcontains(hotel)
p882
I00
sVcontains(book)
p883
I00
sVcontains(tell)
p884
I00
sVcontains(city)
p885
I00
sVcontains(I)
p886
I00
sVcontains(an)
p887
I00
sVcontains(is)
p888
I00
sVcontains(doing)
p889
I00
sVcontains(money)
p890
I00
sVcontains(alexa)
p891
I00
sVcontains(citi)
p892
I00
sVcontains(online)
p893
I00
sVcontains(give)
p894
I00
sVcontains(proof)
p895
I00
sVcontains(credit)
p896
I01
sVcontains(balance)
p897
I01
sVcontains(want)
p898
I00
sVcontains(accomodation)
p899
I00
sVcontains(i)
p900
I00
sVcontains(confirm)
p901
I00
sVcontains(bank)
p902
I00
sVcontains(initiate)
p903
I00
sVcontains(to)
p904
I00
sVcontains(savings)
p905
I00
sVcontains(get)
p906
I00
sVcontains(booking)
p907
I00
sVcontains(what)
p908
I01
sVcontains(document)
p909
I00
sVcontains(much)
p910
I00
sVcontains(make)
p911
I00
sVcontains(help)
p912
I00
sVcontains('s)
p913
I00
sVcontains(transaction)
p914
I00
sVcontains(nice)
p915
I00
sVcontains(amount)
p916
I00
sVcontains(can)
p917
I00
sS'Account intent'
p918
tp919
a((dp920
Vcontains(corporate)
p921
I00
sVcontains(confirmation)
p922
I00
sVcontains(of)
p923
I00
sVcontains(current)
p924
I00
sVcontains(start)
p925
I00
sVcontains(card)
p926
I01
sVcontains(me)
p927
I00
sVcontains(using)
p928
I00
sVcontains(have)
p929
I00
sVcontains(how)
p930
I00
sVcontains(in)
p931
I00
sVcontains(pay)
p932
I00
sVcontains(ask)
p933
I00
sVcontains(a)
p934
I00
sVcontains(on)
p935
I01
sVcontains(account)
p936
I00
sVcontains(payment)
p937
I00
sVcontains(the)
p938
I01
sVcontains(use)
p939
I00
sVcontains(Alexa)
p940
I00
sVcontains(do)
p941
I00
sVcontains(my)
p942
I01
sVcontains(checking)
p943
I00
sVcontains(for)
p944
I00
sVcontains(transfer)
p945
I00
sVcontains(starting)
p946
I00
sVcontains(hotel)
p947
I00
sVcontains(book)
p948
I00
sVcontains(tell)
p949
I00
sVcontains(city)
p950
I00
sVcontains(I)
p951
I00
sVcontains(an)
p952
I00
sVcontains(is)
p953
I01
sVcontains(doing)
p954
I00
sVcontains(money)
p955
I00
sVcontains(alexa)
p956
I00
sVcontains(citi)
p957
I00
sVcontains(online)
p958
I00
sVcontains(give)
p959
I00
sVcontains(proof)
p960
I00
sVcontains(credit)
p961
I01
sVcontains(balance)
p962
I01
sVcontains(want)
p963
I00
sVcontains(accomodation)
p964
I00
sVcontains(i)
p965
I00
sVcontains(confirm)
p966
I00
sVcontains(bank)
p967
I00
sVcontains(initiate)
p968
I00
sVcontains(to)
p969
I00
sVcontains(savings)
p970
I00
sVcontains(get)
p971
I00
sVcontains(booking)
p972
I00
sVcontains(what)
p973
I01
sVcontains(document)
p974
I00
sVcontains(much)
p975
I00
sVcontains(make)
p976
I00
sVcontains(help)
p977
I00
sVcontains('s)
p978
I00
sVcontains(transaction)
p979
I00
sVcontains(nice)
p980
I00
sVcontains(amount)
p981
I00
sVcontains(can)
p982
I00
sS'Account intent'
p983
tp984
a((dp985
Vcontains(corporate)
p986
I00
sVcontains(confirmation)
p987
I00
sVcontains(of)
p988
I00
sVcontains(current)
p989
I00
sVcontains(start)
p990
I00
sVcontains(card)
p991
I01
sVcontains(me)
p992
I00
sVcontains(using)
p993
I00
sVcontains(have)
p994
I00
sVcontains(how)
p995
I00
sVcontains(in)
p996
I00
sVcontains(pay)
p997
I00
sVcontains(ask)
p998
I00
sVcontains(a)
p999
I00
sVcontains(on)
p1000
I00
sVcontains(account)
p1001
I00
sVcontains(payment)
p1002
I00
sVcontains(the)
p1003
I00
sVcontains(use)
p1004
I00
sVcontains(Alexa)
p1005
I00
sVcontains(do)
p1006
I00
sVcontains(my)
p1007
I01
sVcontains(checking)
p1008
I00
sVcontains(for)
p1009
I00
sVcontains(transfer)
p1010
I00
sVcontains(starting)
p1011
I00
sVcontains(hotel)
p1012
I00
sVcontains(book)
p1013
I00
sVcontains(tell)
p1014
I00
sVcontains(city)
p1015
I00
sVcontains(I)
p1016
I00
sVcontains(an)
p1017
I00
sVcontains(is)
p1018
I00
sVcontains(doing)
p1019
I00
sVcontains(money)
p1020
I00
sVcontains(alexa)
p1021
I00
sVcontains(citi)
p1022
I00
sVcontains(online)
p1023
I00
sVcontains(give)
p1024
I00
sVcontains(proof)
p1025
I00
sVcontains(credit)
p1026
I01
sVcontains(balance)
p1027
I01
sVcontains(want)
p1028
I00
sVcontains(accomodation)
p1029
I00
sVcontains(i)
p1030
I00
sVcontains(confirm)
p1031
I00
sVcontains(bank)
p1032
I00
sVcontains(initiate)
p1033
I00
sVcontains(to)
p1034
I00
sVcontains(savings)
p1035
I00
sVcontains(get)
p1036
I00
sVcontains(booking)
p1037
I00
sVcontains(what)
p1038
I00
sVcontains(document)
p1039
I00
sVcontains(much)
p1040
I00
sVcontains(make)
p1041
I00
sVcontains(help)
p1042
I00
sVcontains('s)
p1043
I00
sVcontains(transaction)
p1044
I00
sVcontains(nice)
p1045
I00
sVcontains(amount)
p1046
I00
sVcontains(can)
p1047
I00
sS'Account intent'
p1048
tp1049
a((dp1050
Vcontains(corporate)
p1051
I00
sVcontains(confirmation)
p1052
I00
sVcontains(of)
p1053
I00
sVcontains(current)
p1054
I00
sVcontains(start)
p1055
I00
sVcontains(card)
p1056
I01
sVcontains(me)
p1057
I00
sVcontains(using)
p1058
I00
sVcontains(have)
p1059
I00
sVcontains(how)
p1060
I00
sVcontains(in)
p1061
I00
sVcontains(pay)
p1062
I00
sVcontains(ask)
p1063
I00
sVcontains(a)
p1064
I00
sVcontains(on)
p1065
I01
sVcontains(account)
p1066
I00
sVcontains(payment)
p1067
I00
sVcontains(the)
p1068
I01
sVcontains(use)
p1069
I00
sVcontains(Alexa)
p1070
I00
sVcontains(do)
p1071
I00
sVcontains(my)
p1072
I01
sVcontains(checking)
p1073
I00
sVcontains(for)
p1074
I00
sVcontains(transfer)
p1075
I00
sVcontains(starting)
p1076
I00
sVcontains(hotel)
p1077
I00
sVcontains(book)
p1078
I00
sVcontains(tell)
p1079
I00
sVcontains(city)
p1080
I00
sVcontains(I)
p1081
I00
sVcontains(an)
p1082
I00
sVcontains(is)
p1083
I01
sVcontains(doing)
p1084
I00
sVcontains(money)
p1085
I00
sVcontains(alexa)
p1086
I00
sVcontains(citi)
p1087
I00
sVcontains(online)
p1088
I00
sVcontains(give)
p1089
I00
sVcontains(proof)
p1090
I00
sVcontains(credit)
p1091
I01
sVcontains(balance)
p1092
I01
sVcontains(want)
p1093
I00
sVcontains(accomodation)
p1094
I00
sVcontains(i)
p1095
I00
sVcontains(confirm)
p1096
I00
sVcontains(bank)
p1097
I00
sVcontains(initiate)
p1098
I00
sVcontains(to)
p1099
I00
sVcontains(savings)
p1100
I00
sVcontains(get)
p1101
I00
sVcontains(booking)
p1102
I00
sVcontains(what)
p1103
I01
sVcontains(document)
p1104
I00
sVcontains(much)
p1105
I00
sVcontains(make)
p1106
I00
sVcontains(help)
p1107
I00
sVcontains('s)
p1108
I00
sVcontains(transaction)
p1109
I00
sVcontains(nice)
p1110
I00
sVcontains(amount)
p1111
I00
sVcontains(can)
p1112
I00
sS'Account intent'
p1113
tp1114
a((dp1115
Vcontains(corporate)
p1116
I00
sVcontains(confirmation)
p1117
I00
sVcontains(of)
p1118
I00
sVcontains(current)
p1119
I00
sVcontains(start)
p1120
I00
sVcontains(card)
p1121
I00
sVcontains(me)
p1122
I00
sVcontains(using)
p1123
I00
sVcontains(have)
p1124
I00
sVcontains(how)
p1125
I00
sVcontains(in)
p1126
I00
sVcontains(pay)
p1127
I00
sVcontains(ask)
p1128
I00
sVcontains(a)
p1129
I00
sVcontains(on)
p1130
I00
sVcontains(account)
p1131
I00
sVcontains(payment)
p1132
I00
sVcontains(the)
p1133
I00
sVcontains(use)
p1134
I00
sVcontains(Alexa)
p1135
I00
sVcontains(do)
p1136
I00
sVcontains(my)
p1137
I00
sVcontains(checking)
p1138
I00
sVcontains(for)
p1139
I00
sVcontains(transfer)
p1140
I00
sVcontains(starting)
p1141
I00
sVcontains(hotel)
p1142
I00
sVcontains(book)
p1143
I00
sVcontains(tell)
p1144
I00
sVcontains(city)
p1145
I00
sVcontains(I)
p1146
I00
sVcontains(an)
p1147
I00
sVcontains(is)
p1148
I00
sVcontains(doing)
p1149
I00
sVcontains(money)
p1150
I00
sVcontains(alexa)
p1151
I00
sVcontains(citi)
p1152
I00
sVcontains(online)
p1153
I00
sVcontains(give)
p1154
I00
sVcontains(proof)
p1155
I00
sVcontains(credit)
p1156
I00
sVcontains(balance)
p1157
I01
sVcontains(want)
p1158
I00
sVcontains(accomodation)
p1159
I00
sVcontains(i)
p1160
I00
sVcontains(confirm)
p1161
I00
sVcontains(bank)
p1162
I00
sVcontains(initiate)
p1163
I00
sVcontains(to)
p1164
I00
sVcontains(savings)
p1165
I01
sVcontains(get)
p1166
I00
sVcontains(booking)
p1167
I00
sVcontains(what)
p1168
I00
sVcontains(document)
p1169
I00
sVcontains(much)
p1170
I00
sVcontains(make)
p1171
I00
sVcontains(help)
p1172
I00
sVcontains('s)
p1173
I00
sVcontains(transaction)
p1174
I00
sVcontains(nice)
p1175
I00
sVcontains(amount)
p1176
I00
sVcontains(can)
p1177
I00
sS'Account intent'
p1178
tp1179
a((dp1180
Vcontains(corporate)
p1181
I00
sVcontains(confirmation)
p1182
I00
sVcontains(of)
p1183
I00
sVcontains(current)
p1184
I00
sVcontains(start)
p1185
I00
sVcontains(card)
p1186
I00
sVcontains(me)
p1187
I00
sVcontains(using)
p1188
I00
sVcontains(have)
p1189
I00
sVcontains(how)
p1190
I00
sVcontains(in)
p1191
I00
sVcontains(pay)
p1192
I00
sVcontains(ask)
p1193
I00
sVcontains(a)
p1194
I00
sVcontains(on)
p1195
I00
sVcontains(account)
p1196
I00
sVcontains(payment)
p1197
I00
sVcontains(the)
p1198
I00
sVcontains(use)
p1199
I00
sVcontains(Alexa)
p1200
I00
sVcontains(do)
p1201
I00
sVcontains(my)
p1202
I00
sVcontains(checking)
p1203
I00
sVcontains(for)
p1204
I00
sVcontains(transfer)
p1205
I00
sVcontains(starting)
p1206
I00
sVcontains(hotel)
p1207
I00
sVcontains(book)
p1208
I00
sVcontains(tell)
p1209
I00
sVcontains(city)
p1210
I00
sVcontains(I)
p1211
I00
sVcontains(an)
p1212
I00
sVcontains(is)
p1213
I00
sVcontains(doing)
p1214
I00
sVcontains(money)
p1215
I00
sVcontains(alexa)
p1216
I00
sVcontains(citi)
p1217
I00
sVcontains(online)
p1218
I00
sVcontains(give)
p1219
I00
sVcontains(proof)
p1220
I00
sVcontains(credit)
p1221
I01
sVcontains(balance)
p1222
I01
sVcontains(want)
p1223
I00
sVcontains(accomodation)
p1224
I00
sVcontains(i)
p1225
I00
sVcontains(confirm)
p1226
I00
sVcontains(bank)
p1227
I00
sVcontains(initiate)
p1228
I00
sVcontains(to)
p1229
I00
sVcontains(savings)
p1230
I00
sVcontains(get)
p1231
I00
sVcontains(booking)
p1232
I00
sVcontains(what)
p1233
I00
sVcontains(document)
p1234
I00
sVcontains(much)
p1235
I00
sVcontains(make)
p1236
I00
sVcontains(help)
p1237
I00
sVcontains('s)
p1238
I00
sVcontains(transaction)
p1239
I00
sVcontains(nice)
p1240
I00
sVcontains(amount)
p1241
I00
sVcontains(can)
p1242
I00
sS'Account intent'
p1243
tp1244
a((dp1245
Vcontains(corporate)
p1246
I00
sVcontains(confirmation)
p1247
I00
sVcontains(of)
p1248
I00
sVcontains(current)
p1249
I00
sVcontains(start)
p1250
I00
sVcontains(card)
p1251
I01
sVcontains(me)
p1252
I00
sVcontains(using)
p1253
I00
sVcontains(have)
p1254
I00
sVcontains(how)
p1255
I00
sVcontains(in)
p1256
I00
sVcontains(pay)
p1257
I00
sVcontains(ask)
p1258
I00
sVcontains(a)
p1259
I00
sVcontains(on)
p1260
I00
sVcontains(account)
p1261
I00
sVcontains(payment)
p1262
I00
sVcontains(the)
p1263
I00
sVcontains(use)
p1264
I00
sVcontains(Alexa)
p1265
I00
sVcontains(do)
p1266
I00
sVcontains(my)
p1267
I00
sVcontains(checking)
p1268
I00
sVcontains(for)
p1269
I00
sVcontains(transfer)
p1270
I00
sVcontains(starting)
p1271
I00
sVcontains(hotel)
p1272
I00
sVcontains(book)
p1273
I00
sVcontains(tell)
p1274
I00
sVcontains(city)
p1275
I00
sVcontains(I)
p1276
I00
sVcontains(an)
p1277
I00
sVcontains(is)
p1278
I00
sVcontains(doing)
p1279
I00
sVcontains(money)
p1280
I00
sVcontains(alexa)
p1281
I00
sVcontains(citi)
p1282
I00
sVcontains(online)
p1283
I00
sVcontains(give)
p1284
I00
sVcontains(proof)
p1285
I00
sVcontains(credit)
p1286
I01
sVcontains(balance)
p1287
I01
sVcontains(want)
p1288
I00
sVcontains(accomodation)
p1289
I00
sVcontains(i)
p1290
I00
sVcontains(confirm)
p1291
I00
sVcontains(bank)
p1292
I00
sVcontains(initiate)
p1293
I00
sVcontains(to)
p1294
I00
sVcontains(savings)
p1295
I00
sVcontains(get)
p1296
I00
sVcontains(booking)
p1297
I00
sVcontains(what)
p1298
I00
sVcontains(document)
p1299
I00
sVcontains(much)
p1300
I00
sVcontains(make)
p1301
I00
sVcontains(help)
p1302
I00
sVcontains('s)
p1303
I00
sVcontains(transaction)
p1304
I00
sVcontains(nice)
p1305
I00
sVcontains(amount)
p1306
I00
sVcontains(can)
p1307
I00
sS'Account intent'
p1308
tp1309
a((dp1310
Vcontains(corporate)
p1311
I00
sVcontains(confirmation)
p1312
I00
sVcontains(of)
p1313
I00
sVcontains(current)
p1314
I00
sVcontains(start)
p1315
I00
sVcontains(card)
p1316
I00
sVcontains(me)
p1317
I00
sVcontains(using)
p1318
I00
sVcontains(have)
p1319
I00
sVcontains(how)
p1320
I00
sVcontains(in)
p1321
I00
sVcontains(pay)
p1322
I00
sVcontains(ask)
p1323
I00
sVcontains(a)
p1324
I00
sVcontains(on)
p1325
I00
sVcontains(account)
p1326
I00
sVcontains(payment)
p1327
I00
sVcontains(the)
p1328
I00
sVcontains(use)
p1329
I00
sVcontains(Alexa)
p1330
I00
sVcontains(do)
p1331
I00
sVcontains(my)
p1332
I00
sVcontains(checking)
p1333
I00
sVcontains(for)
p1334
I00
sVcontains(transfer)
p1335
I00
sVcontains(starting)
p1336
I00
sVcontains(hotel)
p1337
I00
sVcontains(book)
p1338
I00
sVcontains(tell)
p1339
I00
sVcontains(city)
p1340
I00
sVcontains(I)
p1341
I00
sVcontains(an)
p1342
I00
sVcontains(is)
p1343
I00
sVcontains(doing)
p1344
I00
sVcontains(money)
p1345
I00
sVcontains(alexa)
p1346
I00
sVcontains(citi)
p1347
I00
sVcontains(online)
p1348
I00
sVcontains(give)
p1349
I00
sVcontains(proof)
p1350
I00
sVcontains(credit)
p1351
I00
sVcontains(balance)
p1352
I01
sVcontains(want)
p1353
I00
sVcontains(accomodation)
p1354
I00
sVcontains(i)
p1355
I00
sVcontains(confirm)
p1356
I00
sVcontains(bank)
p1357
I00
sVcontains(initiate)
p1358
I00
sVcontains(to)
p1359
I00
sVcontains(savings)
p1360
I01
sVcontains(get)
p1361
I00
sVcontains(booking)
p1362
I00
sVcontains(what)
p1363
I00
sVcontains(document)
p1364
I00
sVcontains(much)
p1365
I00
sVcontains(make)
p1366
I00
sVcontains(help)
p1367
I00
sVcontains('s)
p1368
I00
sVcontains(transaction)
p1369
I00
sVcontains(nice)
p1370
I00
sVcontains(amount)
p1371
I00
sVcontains(can)
p1372
I00
sS'Account intent'
p1373
tp1374
a((dp1375
Vcontains(corporate)
p1376
I00
sVcontains(confirmation)
p1377
I00
sVcontains(of)
p1378
I00
sVcontains(current)
p1379
I00
sVcontains(start)
p1380
I00
sVcontains(card)
p1381
I00
sVcontains(me)
p1382
I00
sVcontains(using)
p1383
I00
sVcontains(have)
p1384
I00
sVcontains(how)
p1385
I00
sVcontains(in)
p1386
I00
sVcontains(pay)
p1387
I00
sVcontains(ask)
p1388
I00
sVcontains(a)
p1389
I00
sVcontains(on)
p1390
I00
sVcontains(account)
p1391
I00
sVcontains(payment)
p1392
I00
sVcontains(the)
p1393
I00
sVcontains(use)
p1394
I00
sVcontains(Alexa)
p1395
I00
sVcontains(do)
p1396
I00
sVcontains(my)
p1397
I00
sVcontains(checking)
p1398
I00
sVcontains(for)
p1399
I00
sVcontains(transfer)
p1400
I01
sVcontains(starting)
p1401
I00
sVcontains(hotel)
p1402
I00
sVcontains(book)
p1403
I00
sVcontains(tell)
p1404
I00
sVcontains(city)
p1405
I00
sVcontains(I)
p1406
I00
sVcontains(an)
p1407
I00
sVcontains(is)
p1408
I00
sVcontains(doing)
p1409
I00
sVcontains(money)
p1410
I00
sVcontains(alexa)
p1411
I00
sVcontains(citi)
p1412
I00
sVcontains(online)
p1413
I00
sVcontains(give)
p1414
I00
sVcontains(proof)
p1415
I00
sVcontains(credit)
p1416
I00
sVcontains(balance)
p1417
I00
sVcontains(want)
p1418
I00
sVcontains(accomodation)
p1419
I00
sVcontains(i)
p1420
I00
sVcontains(confirm)
p1421
I00
sVcontains(bank)
p1422
I00
sVcontains(initiate)
p1423
I00
sVcontains(to)
p1424
I01
sVcontains(savings)
p1425
I00
sVcontains(get)
p1426
I00
sVcontains(booking)
p1427
I00
sVcontains(what)
p1428
I00
sVcontains(document)
p1429
I00
sVcontains(much)
p1430
I00
sVcontains(make)
p1431
I00
sVcontains(help)
p1432
I00
sVcontains('s)
p1433
I00
sVcontains(transaction)
p1434
I00
sVcontains(nice)
p1435
I00
sVcontains(amount)
p1436
I01
sVcontains(can)
p1437
I00
sS'Transfer intent'
p1438
tp1439
a((dp1440
Vcontains(corporate)
p1441
I00
sVcontains(confirmation)
p1442
I00
sVcontains(of)
p1443
I00
sVcontains(current)
p1444
I00
sVcontains(start)
p1445
I00
sVcontains(card)
p1446
I00
sVcontains(me)
p1447
I00
sVcontains(using)
p1448
I00
sVcontains(have)
p1449
I00
sVcontains(how)
p1450
I00
sVcontains(in)
p1451
I00
sVcontains(pay)
p1452
I00
sVcontains(ask)
p1453
I00
sVcontains(a)
p1454
I00
sVcontains(on)
p1455
I00
sVcontains(account)
p1456
I00
sVcontains(payment)
p1457
I00
sVcontains(the)
p1458
I00
sVcontains(use)
p1459
I00
sVcontains(Alexa)
p1460
I00
sVcontains(do)
p1461
I00
sVcontains(my)
p1462
I00
sVcontains(checking)
p1463
I00
sVcontains(for)
p1464
I00
sVcontains(transfer)
p1465
I01
sVcontains(starting)
p1466
I00
sVcontains(hotel)
p1467
I00
sVcontains(book)
p1468
I00
sVcontains(tell)
p1469
I00
sVcontains(city)
p1470
I00
sVcontains(I)
p1471
I01
sVcontains(an)
p1472
I00
sVcontains(is)
p1473
I00
sVcontains(doing)
p1474
I00
sVcontains(money)
p1475
I00
sVcontains(alexa)
p1476
I00
sVcontains(citi)
p1477
I00
sVcontains(online)
p1478
I00
sVcontains(give)
p1479
I00
sVcontains(proof)
p1480
I00
sVcontains(credit)
p1481
I00
sVcontains(balance)
p1482
I00
sVcontains(want)
p1483
I01
sVcontains(accomodation)
p1484
I00
sVcontains(i)
p1485
I00
sVcontains(confirm)
p1486
I00
sVcontains(bank)
p1487
I00
sVcontains(initiate)
p1488
I00
sVcontains(to)
p1489
I01
sVcontains(savings)
p1490
I00
sVcontains(get)
p1491
I00
sVcontains(booking)
p1492
I00
sVcontains(what)
p1493
I00
sVcontains(document)
p1494
I00
sVcontains(much)
p1495
I00
sVcontains(make)
p1496
I00
sVcontains(help)
p1497
I00
sVcontains('s)
p1498
I00
sVcontains(transaction)
p1499
I00
sVcontains(nice)
p1500
I00
sVcontains(amount)
p1501
I01
sVcontains(can)
p1502
I00
sS'Transfer intent'
p1503
tp1504
a((dp1505
Vcontains(corporate)
p1506
I00
sVcontains(confirmation)
p1507
I00
sVcontains(of)
p1508
I00
sVcontains(current)
p1509
I00
sVcontains(start)
p1510
I00
sVcontains(card)
p1511
I00
sVcontains(me)
p1512
I00
sVcontains(using)
p1513
I00
sVcontains(have)
p1514
I00
sVcontains(how)
p1515
I00
sVcontains(in)
p1516
I00
sVcontains(pay)
p1517
I00
sVcontains(ask)
p1518
I00
sVcontains(a)
p1519
I01
sVcontains(on)
p1520
I00
sVcontains(account)
p1521
I00
sVcontains(payment)
p1522
I01
sVcontains(the)
p1523
I00
sVcontains(use)
p1524
I00
sVcontains(Alexa)
p1525
I00
sVcontains(do)
p1526
I00
sVcontains(my)
p1527
I00
sVcontains(checking)
p1528
I00
sVcontains(for)
p1529
I00
sVcontains(transfer)
p1530
I00
sVcontains(starting)
p1531
I00
sVcontains(hotel)
p1532
I00
sVcontains(book)
p1533
I00
sVcontains(tell)
p1534
I00
sVcontains(city)
p1535
I00
sVcontains(I)
p1536
I00
sVcontains(an)
p1537
I00
sVcontains(is)
p1538
I00
sVcontains(doing)
p1539
I00
sVcontains(money)
p1540
I00
sVcontains(alexa)
p1541
I00
sVcontains(citi)
p1542
I00
sVcontains(online)
p1543
I00
sVcontains(give)
p1544
I00
sVcontains(proof)
p1545
I00
sVcontains(credit)
p1546
I00
sVcontains(balance)
p1547
I00
sVcontains(want)
p1548
I01
sVcontains(accomodation)
p1549
I00
sVcontains(i)
p1550
I01
sVcontains(confirm)
p1551
I00
sVcontains(bank)
p1552
I00
sVcontains(initiate)
p1553
I00
sVcontains(to)
p1554
I01
sVcontains(savings)
p1555
I00
sVcontains(get)
p1556
I00
sVcontains(booking)
p1557
I00
sVcontains(what)
p1558
I00
sVcontains(document)
p1559
I00
sVcontains(much)
p1560
I00
sVcontains(make)
p1561
I01
sVcontains(help)
p1562
I00
sVcontains('s)
p1563
I00
sVcontains(transaction)
p1564
I00
sVcontains(nice)
p1565
I00
sVcontains(amount)
p1566
I00
sVcontains(can)
p1567
I00
sS'Transfer intent'
p1568
tp1569
a((dp1570
Vcontains(corporate)
p1571
I00
sVcontains(confirmation)
p1572
I00
sVcontains(of)
p1573
I00
sVcontains(current)
p1574
I00
sVcontains(start)
p1575
I00
sVcontains(card)
p1576
I00
sVcontains(me)
p1577
I00
sVcontains(using)
p1578
I00
sVcontains(have)
p1579
I00
sVcontains(how)
p1580
I00
sVcontains(in)
p1581
I00
sVcontains(pay)
p1582
I00
sVcontains(ask)
p1583
I00
sVcontains(a)
p1584
I00
sVcontains(on)
p1585
I00
sVcontains(account)
p1586
I00
sVcontains(payment)
p1587
I01
sVcontains(the)
p1588
I00
sVcontains(use)
p1589
I00
sVcontains(Alexa)
p1590
I00
sVcontains(do)
p1591
I00
sVcontains(my)
p1592
I00
sVcontains(checking)
p1593
I00
sVcontains(for)
p1594
I00
sVcontains(transfer)
p1595
I00
sVcontains(starting)
p1596
I00
sVcontains(hotel)
p1597
I00
sVcontains(book)
p1598
I00
sVcontains(tell)
p1599
I00
sVcontains(city)
p1600
I00
sVcontains(I)
p1601
I00
sVcontains(an)
p1602
I00
sVcontains(is)
p1603
I00
sVcontains(doing)
p1604
I00
sVcontains(money)
p1605
I00
sVcontains(alexa)
p1606
I00
sVcontains(citi)
p1607
I00
sVcontains(online)
p1608
I00
sVcontains(give)
p1609
I00
sVcontains(proof)
p1610
I00
sVcontains(credit)
p1611
I00
sVcontains(balance)
p1612
I00
sVcontains(want)
p1613
I00
sVcontains(accomodation)
p1614
I00
sVcontains(i)
p1615
I00
sVcontains(confirm)
p1616
I00
sVcontains(bank)
p1617
I00
sVcontains(initiate)
p1618
I00
sVcontains(to)
p1619
I00
sVcontains(savings)
p1620
I00
sVcontains(get)
p1621
I00
sVcontains(booking)
p1622
I00
sVcontains(what)
p1623
I00
sVcontains(document)
p1624
I00
sVcontains(much)
p1625
I00
sVcontains(make)
p1626
I01
sVcontains(help)
p1627
I00
sVcontains('s)
p1628
I00
sVcontains(transaction)
p1629
I00
sVcontains(nice)
p1630
I00
sVcontains(amount)
p1631
I00
sVcontains(can)
p1632
I00
sS'Transfer intent'
p1633
tp1634
a((dp1635
Vcontains(corporate)
p1636
I00
sVcontains(confirmation)
p1637
I00
sVcontains(of)
p1638
I00
sVcontains(current)
p1639
I00
sVcontains(start)
p1640
I00
sVcontains(card)
p1641
I00
sVcontains(me)
p1642
I00
sVcontains(using)
p1643
I00
sVcontains(have)
p1644
I00
sVcontains(how)
p1645
I00
sVcontains(in)
p1646
I00
sVcontains(pay)
p1647
I00
sVcontains(ask)
p1648
I00
sVcontains(a)
p1649
I01
sVcontains(on)
p1650
I00
sVcontains(account)
p1651
I00
sVcontains(payment)
p1652
I01
sVcontains(the)
p1653
I00
sVcontains(use)
p1654
I00
sVcontains(Alexa)
p1655
I00
sVcontains(do)
p1656
I00
sVcontains(my)
p1657
I00
sVcontains(checking)
p1658
I00
sVcontains(for)
p1659
I00
sVcontains(transfer)
p1660
I00
sVcontains(starting)
p1661
I00
sVcontains(hotel)
p1662
I00
sVcontains(book)
p1663
I00
sVcontains(tell)
p1664
I00
sVcontains(city)
p1665
I00
sVcontains(I)
p1666
I00
sVcontains(an)
p1667
I00
sVcontains(is)
p1668
I00
sVcontains(doing)
p1669
I00
sVcontains(money)
p1670
I00
sVcontains(alexa)
p1671
I00
sVcontains(citi)
p1672
I00
sVcontains(online)
p1673
I00
sVcontains(give)
p1674
I00
sVcontains(proof)
p1675
I00
sVcontains(credit)
p1676
I00
sVcontains(balance)
p1677
I00
sVcontains(want)
p1678
I00
sVcontains(accomodation)
p1679
I00
sVcontains(i)
p1680
I00
sVcontains(confirm)
p1681
I00
sVcontains(bank)
p1682
I00
sVcontains(initiate)
p1683
I01
sVcontains(to)
p1684
I00
sVcontains(savings)
p1685
I00
sVcontains(get)
p1686
I00
sVcontains(booking)
p1687
I00
sVcontains(what)
p1688
I00
sVcontains(document)
p1689
I00
sVcontains(much)
p1690
I00
sVcontains(make)
p1691
I00
sVcontains(help)
p1692
I00
sVcontains('s)
p1693
I00
sVcontains(transaction)
p1694
I00
sVcontains(nice)
p1695
I00
sVcontains(amount)
p1696
I00
sVcontains(can)
p1697
I00
sS'Transfer intent'
p1698
tp1699
a((dp1700
Vcontains(corporate)
p1701
I00
sVcontains(confirmation)
p1702
I00
sVcontains(of)
p1703
I00
sVcontains(current)
p1704
I00
sVcontains(start)
p1705
I00
sVcontains(card)
p1706
I00
sVcontains(me)
p1707
I00
sVcontains(using)
p1708
I00
sVcontains(have)
p1709
I00
sVcontains(how)
p1710
I00
sVcontains(in)
p1711
I00
sVcontains(pay)
p1712
I00
sVcontains(ask)
p1713
I00
sVcontains(a)
p1714
I01
sVcontains(on)
p1715
I00
sVcontains(account)
p1716
I00
sVcontains(payment)
p1717
I01
sVcontains(the)
p1718
I00
sVcontains(use)
p1719
I00
sVcontains(Alexa)
p1720
I00
sVcontains(do)
p1721
I01
sVcontains(my)
p1722
I00
sVcontains(checking)
p1723
I00
sVcontains(for)
p1724
I00
sVcontains(transfer)
p1725
I01
sVcontains(starting)
p1726
I00
sVcontains(hotel)
p1727
I00
sVcontains(book)
p1728
I00
sVcontains(tell)
p1729
I00
sVcontains(city)
p1730
I00
sVcontains(I)
p1731
I00
sVcontains(an)
p1732
I00
sVcontains(is)
p1733
I00
sVcontains(doing)
p1734
I00
sVcontains(money)
p1735
I00
sVcontains(alexa)
p1736
I00
sVcontains(citi)
p1737
I00
sVcontains(online)
p1738
I00
sVcontains(give)
p1739
I00
sVcontains(proof)
p1740
I00
sVcontains(credit)
p1741
I00
sVcontains(balance)
p1742
I00
sVcontains(want)
p1743
I00
sVcontains(accomodation)
p1744
I00
sVcontains(i)
p1745
I00
sVcontains(confirm)
p1746
I00
sVcontains(bank)
p1747
I00
sVcontains(initiate)
p1748
I00
sVcontains(to)
p1749
I00
sVcontains(savings)
p1750
I00
sVcontains(get)
p1751
I00
sVcontains(booking)
p1752
I00
sVcontains(what)
p1753
I00
sVcontains(document)
p1754
I00
sVcontains(much)
p1755
I00
sVcontains(make)
p1756
I00
sVcontains(help)
p1757
I00
sVcontains('s)
p1758
I00
sVcontains(transaction)
p1759
I00
sVcontains(nice)
p1760
I00
sVcontains(amount)
p1761
I00
sVcontains(can)
p1762
I00
sS'Transfer intent'
p1763
tp1764
a((dp1765
Vcontains(corporate)
p1766
I00
sVcontains(confirmation)
p1767
I00
sVcontains(of)
p1768
I00
sVcontains(current)
p1769
I00
sVcontains(start)
p1770
I00
sVcontains(card)
p1771
I00
sVcontains(me)
p1772
I00
sVcontains(using)
p1773
I00
sVcontains(have)
p1774
I00
sVcontains(how)
p1775
I00
sVcontains(in)
p1776
I00
sVcontains(pay)
p1777
I01
sVcontains(ask)
p1778
I00
sVcontains(a)
p1779
I00
sVcontains(on)
p1780
I00
sVcontains(account)
p1781
I00
sVcontains(payment)
p1782
I00
sVcontains(the)
p1783
I00
sVcontains(use)
p1784
I00
sVcontains(Alexa)
p1785
I00
sVcontains(do)
p1786
I00
sVcontains(my)
p1787
I00
sVcontains(checking)
p1788
I00
sVcontains(for)
p1789
I00
sVcontains(transfer)
p1790
I00
sVcontains(starting)
p1791
I00
sVcontains(hotel)
p1792
I00
sVcontains(book)
p1793
I00
sVcontains(tell)
p1794
I00
sVcontains(city)
p1795
I00
sVcontains(I)
p1796
I00
sVcontains(an)
p1797
I00
sVcontains(is)
p1798
I00
sVcontains(doing)
p1799
I00
sVcontains(money)
p1800
I01
sVcontains(alexa)
p1801
I00
sVcontains(citi)
p1802
I00
sVcontains(online)
p1803
I00
sVcontains(give)
p1804
I00
sVcontains(proof)
p1805
I00
sVcontains(credit)
p1806
I00
sVcontains(balance)
p1807
I00
sVcontains(want)
p1808
I00
sVcontains(accomodation)
p1809
I00
sVcontains(i)
p1810
I00
sVcontains(confirm)
p1811
I00
sVcontains(bank)
p1812
I00
sVcontains(initiate)
p1813
I00
sVcontains(to)
p1814
I00
sVcontains(savings)
p1815
I00
sVcontains(get)
p1816
I00
sVcontains(booking)
p1817
I00
sVcontains(what)
p1818
I00
sVcontains(document)
p1819
I00
sVcontains(much)
p1820
I00
sVcontains(make)
p1821
I00
sVcontains(help)
p1822
I00
sVcontains('s)
p1823
I00
sVcontains(transaction)
p1824
I00
sVcontains(nice)
p1825
I00
sVcontains(amount)
p1826
I00
sVcontains(can)
p1827
I00
sS'Transfer intent'
p1828
tp1829
a((dp1830
Vcontains(corporate)
p1831
I00
sVcontains(confirmation)
p1832
I00
sVcontains(of)
p1833
I00
sVcontains(current)
p1834
I00
sVcontains(start)
p1835
I00
sVcontains(card)
p1836
I00
sVcontains(me)
p1837
I00
sVcontains(using)
p1838
I00
sVcontains(have)
p1839
I00
sVcontains(how)
p1840
I00
sVcontains(in)
p1841
I00
sVcontains(pay)
p1842
I01
sVcontains(ask)
p1843
I00
sVcontains(a)
p1844
I00
sVcontains(on)
p1845
I00
sVcontains(account)
p1846
I00
sVcontains(payment)
p1847
I00
sVcontains(the)
p1848
I00
sVcontains(use)
p1849
I00
sVcontains(Alexa)
p1850
I00
sVcontains(do)
p1851
I00
sVcontains(my)
p1852
I00
sVcontains(checking)
p1853
I00
sVcontains(for)
p1854
I00
sVcontains(transfer)
p1855
I00
sVcontains(starting)
p1856
I00
sVcontains(hotel)
p1857
I00
sVcontains(book)
p1858
I00
sVcontains(tell)
p1859
I00
sVcontains(city)
p1860
I00
sVcontains(I)
p1861
I01
sVcontains(an)
p1862
I00
sVcontains(is)
p1863
I00
sVcontains(doing)
p1864
I00
sVcontains(money)
p1865
I01
sVcontains(alexa)
p1866
I00
sVcontains(citi)
p1867
I00
sVcontains(online)
p1868
I00
sVcontains(give)
p1869
I00
sVcontains(proof)
p1870
I00
sVcontains(credit)
p1871
I00
sVcontains(balance)
p1872
I00
sVcontains(want)
p1873
I01
sVcontains(accomodation)
p1874
I00
sVcontains(i)
p1875
I00
sVcontains(confirm)
p1876
I00
sVcontains(bank)
p1877
I00
sVcontains(initiate)
p1878
I00
sVcontains(to)
p1879
I01
sVcontains(savings)
p1880
I00
sVcontains(get)
p1881
I00
sVcontains(booking)
p1882
I00
sVcontains(what)
p1883
I00
sVcontains(document)
p1884
I00
sVcontains(much)
p1885
I00
sVcontains(make)
p1886
I00
sVcontains(help)
p1887
I00
sVcontains('s)
p1888
I00
sVcontains(transaction)
p1889
I00
sVcontains(nice)
p1890
I00
sVcontains(amount)
p1891
I00
sVcontains(can)
p1892
I00
sS'Transfer intent'
p1893
tp1894
a((dp1895
Vcontains(corporate)
p1896
I00
sVcontains(confirmation)
p1897
I00
sVcontains(of)
p1898
I00
sVcontains(current)
p1899
I00
sVcontains(start)
p1900
I00
sVcontains(card)
p1901
I00
sVcontains(me)
p1902
I00
sVcontains(using)
p1903
I00
sVcontains(have)
p1904
I00
sVcontains(how)
p1905
I00
sVcontains(in)
p1906
I00
sVcontains(pay)
p1907
I00
sVcontains(ask)
p1908
I00
sVcontains(a)
p1909
I00
sVcontains(on)
p1910
I00
sVcontains(account)
p1911
I00
sVcontains(payment)
p1912
I01
sVcontains(the)
p1913
I00
sVcontains(use)
p1914
I00
sVcontains(Alexa)
p1915
I00
sVcontains(do)
p1916
I00
sVcontains(my)
p1917
I00
sVcontains(checking)
p1918
I00
sVcontains(for)
p1919
I00
sVcontains(transfer)
p1920
I00
sVcontains(starting)
p1921
I00
sVcontains(hotel)
p1922
I00
sVcontains(book)
p1923
I00
sVcontains(tell)
p1924
I00
sVcontains(city)
p1925
I00
sVcontains(I)
p1926
I00
sVcontains(an)
p1927
I00
sVcontains(is)
p1928
I00
sVcontains(doing)
p1929
I00
sVcontains(money)
p1930
I01
sVcontains(alexa)
p1931
I00
sVcontains(citi)
p1932
I00
sVcontains(online)
p1933
I00
sVcontains(give)
p1934
I00
sVcontains(proof)
p1935
I00
sVcontains(credit)
p1936
I00
sVcontains(balance)
p1937
I00
sVcontains(want)
p1938
I00
sVcontains(accomodation)
p1939
I00
sVcontains(i)
p1940
I00
sVcontains(confirm)
p1941
I00
sVcontains(bank)
p1942
I00
sVcontains(initiate)
p1943
I00
sVcontains(to)
p1944
I00
sVcontains(savings)
p1945
I00
sVcontains(get)
p1946
I00
sVcontains(booking)
p1947
I00
sVcontains(what)
p1948
I00
sVcontains(document)
p1949
I00
sVcontains(much)
p1950
I00
sVcontains(make)
p1951
I00
sVcontains(help)
p1952
I00
sVcontains('s)
p1953
I00
sVcontains(transaction)
p1954
I00
sVcontains(nice)
p1955
I00
sVcontains(amount)
p1956
I00
sVcontains(can)
p1957
I00
sS'Transfer intent'
p1958
tp1959
a((dp1960
Vcontains(corporate)
p1961
I00
sVcontains(confirmation)
p1962
I00
sVcontains(of)
p1963
I00
sVcontains(current)
p1964
I00
sVcontains(start)
p1965
I00
sVcontains(card)
p1966
I00
sVcontains(me)
p1967
I00
sVcontains(using)
p1968
I00
sVcontains(have)
p1969
I00
sVcontains(how)
p1970
I00
sVcontains(in)
p1971
I00
sVcontains(pay)
p1972
I00
sVcontains(ask)
p1973
I00
sVcontains(a)
p1974
I01
sVcontains(on)
p1975
I00
sVcontains(account)
p1976
I00
sVcontains(payment)
p1977
I01
sVcontains(the)
p1978
I00
sVcontains(use)
p1979
I00
sVcontains(Alexa)
p1980
I00
sVcontains(do)
p1981
I00
sVcontains(my)
p1982
I00
sVcontains(checking)
p1983
I00
sVcontains(for)
p1984
I00
sVcontains(transfer)
p1985
I00
sVcontains(starting)
p1986
I00
sVcontains(hotel)
p1987
I00
sVcontains(book)
p1988
I00
sVcontains(tell)
p1989
I00
sVcontains(city)
p1990
I00
sVcontains(I)
p1991
I00
sVcontains(an)
p1992
I00
sVcontains(is)
p1993
I00
sVcontains(doing)
p1994
I00
sVcontains(money)
p1995
I00
sVcontains(alexa)
p1996
I00
sVcontains(citi)
p1997
I00
sVcontains(online)
p1998
I00
sVcontains(give)
p1999
I00
sVcontains(proof)
p2000
I00
sVcontains(credit)
p2001
I00
sVcontains(balance)
p2002
I00
sVcontains(want)
p2003
I01
sVcontains(accomodation)
p2004
I00
sVcontains(i)
p2005
I01
sVcontains(confirm)
p2006
I00
sVcontains(bank)
p2007
I00
sVcontains(initiate)
p2008
I01
sVcontains(to)
p2009
I01
sVcontains(savings)
p2010
I00
sVcontains(get)
p2011
I00
sVcontains(booking)
p2012
I00
sVcontains(what)
p2013
I00
sVcontains(document)
p2014
I00
sVcontains(much)
p2015
I00
sVcontains(make)
p2016
I00
sVcontains(help)
p2017
I00
sVcontains('s)
p2018
I00
sVcontains(transaction)
p2019
I00
sVcontains(nice)
p2020
I00
sVcontains(amount)
p2021
I00
sVcontains(can)
p2022
I00
sS'Transfer intent'
p2023
tp2024
a((dp2025
Vcontains(corporate)
p2026
I00
sVcontains(confirmation)
p2027
I00
sVcontains(of)
p2028
I00
sVcontains(current)
p2029
I00
sVcontains(start)
p2030
I00
sVcontains(card)
p2031
I00
sVcontains(me)
p2032
I00
sVcontains(using)
p2033
I00
sVcontains(have)
p2034
I00
sVcontains(how)
p2035
I00
sVcontains(in)
p2036
I00
sVcontains(pay)
p2037
I00
sVcontains(ask)
p2038
I00
sVcontains(a)
p2039
I00
sVcontains(on)
p2040
I00
sVcontains(account)
p2041
I00
sVcontains(payment)
p2042
I00
sVcontains(the)
p2043
I00
sVcontains(use)
p2044
I00
sVcontains(Alexa)
p2045
I00
sVcontains(do)
p2046
I00
sVcontains(my)
p2047
I00
sVcontains(checking)
p2048
I00
sVcontains(for)
p2049
I00
sVcontains(transfer)
p2050
I01
sVcontains(starting)
p2051
I00
sVcontains(hotel)
p2052
I00
sVcontains(book)
p2053
I00
sVcontains(tell)
p2054
I00
sVcontains(city)
p2055
I00
sVcontains(I)
p2056
I00
sVcontains(an)
p2057
I00
sVcontains(is)
p2058
I00
sVcontains(doing)
p2059
I00
sVcontains(money)
p2060
I01
sVcontains(alexa)
p2061
I00
sVcontains(citi)
p2062
I00
sVcontains(online)
p2063
I00
sVcontains(give)
p2064
I00
sVcontains(proof)
p2065
I00
sVcontains(credit)
p2066
I00
sVcontains(balance)
p2067
I00
sVcontains(want)
p2068
I00
sVcontains(accomodation)
p2069
I00
sVcontains(i)
p2070
I00
sVcontains(confirm)
p2071
I00
sVcontains(bank)
p2072
I00
sVcontains(initiate)
p2073
I00
sVcontains(to)
p2074
I00
sVcontains(savings)
p2075
I00
sVcontains(get)
p2076
I00
sVcontains(booking)
p2077
I00
sVcontains(what)
p2078
I00
sVcontains(document)
p2079
I00
sVcontains(much)
p2080
I00
sVcontains(make)
p2081
I00
sVcontains(help)
p2082
I00
sVcontains('s)
p2083
I00
sVcontains(transaction)
p2084
I00
sVcontains(nice)
p2085
I00
sVcontains(amount)
p2086
I00
sVcontains(can)
p2087
I00
sS'Transfer intent'
p2088
tp2089
a((dp2090
Vcontains(corporate)
p2091
I01
sVcontains(confirmation)
p2092
I00
sVcontains(of)
p2093
I00
sVcontains(current)
p2094
I00
sVcontains(start)
p2095
I00
sVcontains(card)
p2096
I00
sVcontains(me)
p2097
I00
sVcontains(using)
p2098
I00
sVcontains(have)
p2099
I00
sVcontains(how)
p2100
I00
sVcontains(in)
p2101
I00
sVcontains(pay)
p2102
I00
sVcontains(ask)
p2103
I00
sVcontains(a)
p2104
I00
sVcontains(on)
p2105
I00
sVcontains(account)
p2106
I00
sVcontains(payment)
p2107
I00
sVcontains(the)
p2108
I00
sVcontains(use)
p2109
I00
sVcontains(Alexa)
p2110
I00
sVcontains(do)
p2111
I01
sVcontains(my)
p2112
I00
sVcontains(checking)
p2113
I00
sVcontains(for)
p2114
I00
sVcontains(transfer)
p2115
I01
sVcontains(starting)
p2116
I00
sVcontains(hotel)
p2117
I00
sVcontains(book)
p2118
I00
sVcontains(tell)
p2119
I00
sVcontains(city)
p2120
I00
sVcontains(I)
p2121
I01
sVcontains(an)
p2122
I00
sVcontains(is)
p2123
I00
sVcontains(doing)
p2124
I00
sVcontains(money)
p2125
I00
sVcontains(alexa)
p2126
I00
sVcontains(citi)
p2127
I00
sVcontains(online)
p2128
I00
sVcontains(give)
p2129
I00
sVcontains(proof)
p2130
I00
sVcontains(credit)
p2131
I00
sVcontains(balance)
p2132
I00
sVcontains(want)
p2133
I01
sVcontains(accomodation)
p2134
I00
sVcontains(i)
p2135
I00
sVcontains(confirm)
p2136
I00
sVcontains(bank)
p2137
I00
sVcontains(initiate)
p2138
I00
sVcontains(to)
p2139
I01
sVcontains(savings)
p2140
I00
sVcontains(get)
p2141
I00
sVcontains(booking)
p2142
I00
sVcontains(what)
p2143
I00
sVcontains(document)
p2144
I00
sVcontains(much)
p2145
I00
sVcontains(make)
p2146
I00
sVcontains(help)
p2147
I00
sVcontains('s)
p2148
I00
sVcontains(transaction)
p2149
I00
sVcontains(nice)
p2150
I00
sVcontains(amount)
p2151
I00
sVcontains(can)
p2152
I00
sS'Transaction intent'
p2153
tp2154
a((dp2155
Vcontains(corporate)
p2156
I00
sVcontains(confirmation)
p2157
I00
sVcontains(of)
p2158
I00
sVcontains(current)
p2159
I00
sVcontains(start)
p2160
I00
sVcontains(card)
p2161
I00
sVcontains(me)
p2162
I00
sVcontains(using)
p2163
I00
sVcontains(have)
p2164
I00
sVcontains(how)
p2165
I00
sVcontains(in)
p2166
I00
sVcontains(pay)
p2167
I00
sVcontains(ask)
p2168
I00
sVcontains(a)
p2169
I00
sVcontains(on)
p2170
I00
sVcontains(account)
p2171
I00
sVcontains(payment)
p2172
I00
sVcontains(the)
p2173
I00
sVcontains(use)
p2174
I00
sVcontains(Alexa)
p2175
I00
sVcontains(do)
p2176
I01
sVcontains(my)
p2177
I00
sVcontains(checking)
p2178
I00
sVcontains(for)
p2179
I00
sVcontains(transfer)
p2180
I00
sVcontains(starting)
p2181
I00
sVcontains(hotel)
p2182
I00
sVcontains(book)
p2183
I00
sVcontains(tell)
p2184
I00
sVcontains(city)
p2185
I00
sVcontains(I)
p2186
I01
sVcontains(an)
p2187
I00
sVcontains(is)
p2188
I00
sVcontains(doing)
p2189
I00
sVcontains(money)
p2190
I00
sVcontains(alexa)
p2191
I00
sVcontains(citi)
p2192
I00
sVcontains(online)
p2193
I00
sVcontains(give)
p2194
I00
sVcontains(proof)
p2195
I00
sVcontains(credit)
p2196
I00
sVcontains(balance)
p2197
I00
sVcontains(want)
p2198
I01
sVcontains(accomodation)
p2199
I00
sVcontains(i)
p2200
I00
sVcontains(confirm)
p2201
I00
sVcontains(bank)
p2202
I00
sVcontains(initiate)
p2203
I00
sVcontains(to)
p2204
I01
sVcontains(savings)
p2205
I00
sVcontains(get)
p2206
I00
sVcontains(booking)
p2207
I00
sVcontains(what)
p2208
I00
sVcontains(document)
p2209
I00
sVcontains(much)
p2210
I00
sVcontains(make)
p2211
I00
sVcontains(help)
p2212
I00
sVcontains('s)
p2213
I00
sVcontains(transaction)
p2214
I01
sVcontains(nice)
p2215
I00
sVcontains(amount)
p2216
I00
sVcontains(can)
p2217
I00
sS'Transaction intent'
p2218
tp2219
a((dp2220
Vcontains(corporate)
p2221
I00
sVcontains(confirmation)
p2222
I00
sVcontains(of)
p2223
I00
sVcontains(current)
p2224
I00
sVcontains(start)
p2225
I00
sVcontains(card)
p2226
I00
sVcontains(me)
p2227
I00
sVcontains(using)
p2228
I00
sVcontains(have)
p2229
I00
sVcontains(how)
p2230
I00
sVcontains(in)
p2231
I00
sVcontains(pay)
p2232
I00
sVcontains(ask)
p2233
I00
sVcontains(a)
p2234
I01
sVcontains(on)
p2235
I00
sVcontains(account)
p2236
I00
sVcontains(payment)
p2237
I00
sVcontains(the)
p2238
I00
sVcontains(use)
p2239
I00
sVcontains(Alexa)
p2240
I00
sVcontains(do)
p2241
I00
sVcontains(my)
p2242
I00
sVcontains(checking)
p2243
I00
sVcontains(for)
p2244
I00
sVcontains(transfer)
p2245
I00
sVcontains(starting)
p2246
I00
sVcontains(hotel)
p2247
I00
sVcontains(book)
p2248
I00
sVcontains(tell)
p2249
I00
sVcontains(city)
p2250
I00
sVcontains(I)
p2251
I00
sVcontains(an)
p2252
I00
sVcontains(is)
p2253
I00
sVcontains(doing)
p2254
I00
sVcontains(money)
p2255
I00
sVcontains(alexa)
p2256
I00
sVcontains(citi)
p2257
I00
sVcontains(online)
p2258
I00
sVcontains(give)
p2259
I00
sVcontains(proof)
p2260
I00
sVcontains(credit)
p2261
I00
sVcontains(balance)
p2262
I00
sVcontains(want)
p2263
I00
sVcontains(accomodation)
p2264
I00
sVcontains(i)
p2265
I00
sVcontains(confirm)
p2266
I00
sVcontains(bank)
p2267
I00
sVcontains(initiate)
p2268
I00
sVcontains(to)
p2269
I00
sVcontains(savings)
p2270
I00
sVcontains(get)
p2271
I00
sVcontains(booking)
p2272
I00
sVcontains(what)
p2273
I00
sVcontains(document)
p2274
I00
sVcontains(much)
p2275
I00
sVcontains(make)
p2276
I01
sVcontains(help)
p2277
I00
sVcontains('s)
p2278
I00
sVcontains(transaction)
p2279
I01
sVcontains(nice)
p2280
I00
sVcontains(amount)
p2281
I00
sVcontains(can)
p2282
I00
sS'Transaction intent'
p2283
tp2284
a((dp2285
Vcontains(corporate)
p2286
I00
sVcontains(confirmation)
p2287
I00
sVcontains(of)
p2288
I00
sVcontains(current)
p2289
I00
sVcontains(start)
p2290
I00
sVcontains(card)
p2291
I00
sVcontains(me)
p2292
I01
sVcontains(using)
p2293
I00
sVcontains(have)
p2294
I00
sVcontains(how)
p2295
I00
sVcontains(in)
p2296
I00
sVcontains(pay)
p2297
I00
sVcontains(ask)
p2298
I00
sVcontains(a)
p2299
I01
sVcontains(on)
p2300
I00
sVcontains(account)
p2301
I00
sVcontains(payment)
p2302
I00
sVcontains(the)
p2303
I00
sVcontains(use)
p2304
I00
sVcontains(Alexa)
p2305
I00
sVcontains(do)
p2306
I01
sVcontains(my)
p2307
I00
sVcontains(checking)
p2308
I00
sVcontains(for)
p2309
I01
sVcontains(transfer)
p2310
I00
sVcontains(starting)
p2311
I00
sVcontains(hotel)
p2312
I00
sVcontains(book)
p2313
I00
sVcontains(tell)
p2314
I00
sVcontains(city)
p2315
I00
sVcontains(I)
p2316
I00
sVcontains(an)
p2317
I00
sVcontains(is)
p2318
I00
sVcontains(doing)
p2319
I00
sVcontains(money)
p2320
I00
sVcontains(alexa)
p2321
I00
sVcontains(citi)
p2322
I00
sVcontains(online)
p2323
I00
sVcontains(give)
p2324
I00
sVcontains(proof)
p2325
I00
sVcontains(credit)
p2326
I00
sVcontains(balance)
p2327
I00
sVcontains(want)
p2328
I00
sVcontains(accomodation)
p2329
I00
sVcontains(i)
p2330
I00
sVcontains(confirm)
p2331
I00
sVcontains(bank)
p2332
I00
sVcontains(initiate)
p2333
I00
sVcontains(to)
p2334
I00
sVcontains(savings)
p2335
I00
sVcontains(get)
p2336
I00
sVcontains(booking)
p2337
I00
sVcontains(what)
p2338
I00
sVcontains(document)
p2339
I00
sVcontains(much)
p2340
I00
sVcontains(make)
p2341
I00
sVcontains(help)
p2342
I00
sVcontains('s)
p2343
I00
sVcontains(transaction)
p2344
I01
sVcontains(nice)
p2345
I00
sVcontains(amount)
p2346
I00
sVcontains(can)
p2347
I00
sS'TransactionIntent'
p2348
tp2349
a((dp2350
Vcontains(corporate)
p2351
I01
sVcontains(confirmation)
p2352
I00
sVcontains(of)
p2353
I00
sVcontains(current)
p2354
I00
sVcontains(start)
p2355
I00
sVcontains(card)
p2356
I00
sVcontains(me)
p2357
I00
sVcontains(using)
p2358
I00
sVcontains(have)
p2359
I00
sVcontains(how)
p2360
I00
sVcontains(in)
p2361
I00
sVcontains(pay)
p2362
I00
sVcontains(ask)
p2363
I00
sVcontains(a)
p2364
I00
sVcontains(on)
p2365
I00
sVcontains(account)
p2366
I00
sVcontains(payment)
p2367
I00
sVcontains(the)
p2368
I00
sVcontains(use)
p2369
I00
sVcontains(Alexa)
p2370
I00
sVcontains(do)
p2371
I01
sVcontains(my)
p2372
I00
sVcontains(checking)
p2373
I00
sVcontains(for)
p2374
I00
sVcontains(transfer)
p2375
I00
sVcontains(starting)
p2376
I00
sVcontains(hotel)
p2377
I00
sVcontains(book)
p2378
I00
sVcontains(tell)
p2379
I00
sVcontains(city)
p2380
I00
sVcontains(I)
p2381
I01
sVcontains(an)
p2382
I00
sVcontains(is)
p2383
I00
sVcontains(doing)
p2384
I00
sVcontains(money)
p2385
I00
sVcontains(alexa)
p2386
I00
sVcontains(citi)
p2387
I00
sVcontains(online)
p2388
I00
sVcontains(give)
p2389
I00
sVcontains(proof)
p2390
I00
sVcontains(credit)
p2391
I00
sVcontains(balance)
p2392
I00
sVcontains(want)
p2393
I01
sVcontains(accomodation)
p2394
I00
sVcontains(i)
p2395
I00
sVcontains(confirm)
p2396
I00
sVcontains(bank)
p2397
I00
sVcontains(initiate)
p2398
I00
sVcontains(to)
p2399
I01
sVcontains(savings)
p2400
I00
sVcontains(get)
p2401
I00
sVcontains(booking)
p2402
I00
sVcontains(what)
p2403
I00
sVcontains(document)
p2404
I00
sVcontains(much)
p2405
I00
sVcontains(make)
p2406
I00
sVcontains(help)
p2407
I00
sVcontains('s)
p2408
I00
sVcontains(transaction)
p2409
I01
sVcontains(nice)
p2410
I00
sVcontains(amount)
p2411
I00
sVcontains(can)
p2412
I00
sS'Transaction intent'
p2413
tp2414
a((dp2415
Vcontains(corporate)
p2416
I01
sVcontains(confirmation)
p2417
I00
sVcontains(of)
p2418
I00
sVcontains(current)
p2419
I00
sVcontains(start)
p2420
I00
sVcontains(card)
p2421
I00
sVcontains(me)
p2422
I00
sVcontains(using)
p2423
I00
sVcontains(have)
p2424
I00
sVcontains(how)
p2425
I00
sVcontains(in)
p2426
I00
sVcontains(pay)
p2427
I00
sVcontains(ask)
p2428
I00
sVcontains(a)
p2429
I00
sVcontains(on)
p2430
I00
sVcontains(account)
p2431
I00
sVcontains(payment)
p2432
I00
sVcontains(the)
p2433
I00
sVcontains(use)
p2434
I00
sVcontains(Alexa)
p2435
I00
sVcontains(do)
p2436
I00
sVcontains(my)
p2437
I00
sVcontains(checking)
p2438
I00
sVcontains(for)
p2439
I00
sVcontains(transfer)
p2440
I00
sVcontains(starting)
p2441
I00
sVcontains(hotel)
p2442
I00
sVcontains(book)
p2443
I00
sVcontains(tell)
p2444
I00
sVcontains(city)
p2445
I00
sVcontains(I)
p2446
I00
sVcontains(an)
p2447
I00
sVcontains(is)
p2448
I00
sVcontains(doing)
p2449
I00
sVcontains(money)
p2450
I00
sVcontains(alexa)
p2451
I00
sVcontains(citi)
p2452
I00
sVcontains(online)
p2453
I00
sVcontains(give)
p2454
I00
sVcontains(proof)
p2455
I00
sVcontains(credit)
p2456
I00
sVcontains(balance)
p2457
I00
sVcontains(want)
p2458
I00
sVcontains(accomodation)
p2459
I00
sVcontains(i)
p2460
I00
sVcontains(confirm)
p2461
I00
sVcontains(bank)
p2462
I00
sVcontains(initiate)
p2463
I00
sVcontains(to)
p2464
I00
sVcontains(savings)
p2465
I00
sVcontains(get)
p2466
I00
sVcontains(booking)
p2467
I00
sVcontains(what)
p2468
I00
sVcontains(document)
p2469
I00
sVcontains(much)
p2470
I00
sVcontains(make)
p2471
I00
sVcontains(help)
p2472
I00
sVcontains('s)
p2473
I00
sVcontains(transaction)
p2474
I01
sVcontains(nice)
p2475
I00
sVcontains(amount)
p2476
I00
sVcontains(can)
p2477
I00
sS'Transaction intent'
p2478
tp2479
a((dp2480
Vcontains(corporate)
p2481
I01
sVcontains(confirmation)
p2482
I00
sVcontains(of)
p2483
I00
sVcontains(current)
p2484
I00
sVcontains(start)
p2485
I00
sVcontains(card)
p2486
I00
sVcontains(me)
p2487
I00
sVcontains(using)
p2488
I00
sVcontains(have)
p2489
I00
sVcontains(how)
p2490
I00
sVcontains(in)
p2491
I00
sVcontains(pay)
p2492
I00
sVcontains(ask)
p2493
I00
sVcontains(a)
p2494
I01
sVcontains(on)
p2495
I00
sVcontains(account)
p2496
I00
sVcontains(payment)
p2497
I00
sVcontains(the)
p2498
I00
sVcontains(use)
p2499
I00
sVcontains(Alexa)
p2500
I00
sVcontains(do)
p2501
I00
sVcontains(my)
p2502
I00
sVcontains(checking)
p2503
I00
sVcontains(for)
p2504
I00
sVcontains(transfer)
p2505
I00
sVcontains(starting)
p2506
I00
sVcontains(hotel)
p2507
I00
sVcontains(book)
p2508
I00
sVcontains(tell)
p2509
I00
sVcontains(city)
p2510
I00
sVcontains(I)
p2511
I00
sVcontains(an)
p2512
I00
sVcontains(is)
p2513
I00
sVcontains(doing)
p2514
I00
sVcontains(money)
p2515
I00
sVcontains(alexa)
p2516
I00
sVcontains(citi)
p2517
I00
sVcontains(online)
p2518
I00
sVcontains(give)
p2519
I00
sVcontains(proof)
p2520
I00
sVcontains(credit)
p2521
I00
sVcontains(balance)
p2522
I00
sVcontains(want)
p2523
I00
sVcontains(accomodation)
p2524
I00
sVcontains(i)
p2525
I00
sVcontains(confirm)
p2526
I00
sVcontains(bank)
p2527
I00
sVcontains(initiate)
p2528
I00
sVcontains(to)
p2529
I00
sVcontains(savings)
p2530
I00
sVcontains(get)
p2531
I00
sVcontains(booking)
p2532
I00
sVcontains(what)
p2533
I00
sVcontains(document)
p2534
I00
sVcontains(much)
p2535
I00
sVcontains(make)
p2536
I01
sVcontains(help)
p2537
I00
sVcontains('s)
p2538
I00
sVcontains(transaction)
p2539
I01
sVcontains(nice)
p2540
I00
sVcontains(amount)
p2541
I00
sVcontains(can)
p2542
I00
sS'Transaction intent'
p2543
tp2544
a((dp2545
Vcontains(corporate)
p2546
I01
sVcontains(confirmation)
p2547
I00
sVcontains(of)
p2548
I00
sVcontains(current)
p2549
I00
sVcontains(start)
p2550
I00
sVcontains(card)
p2551
I00
sVcontains(me)
p2552
I00
sVcontains(using)
p2553
I00
sVcontains(have)
p2554
I00
sVcontains(how)
p2555
I00
sVcontains(in)
p2556
I00
sVcontains(pay)
p2557
I00
sVcontains(ask)
p2558
I00
sVcontains(a)
p2559
I00
sVcontains(on)
p2560
I00
sVcontains(account)
p2561
I00
sVcontains(payment)
p2562
I00
sVcontains(the)
p2563
I00
sVcontains(use)
p2564
I00
sVcontains(Alexa)
p2565
I00
sVcontains(do)
p2566
I00
sVcontains(my)
p2567
I00
sVcontains(checking)
p2568
I00
sVcontains(for)
p2569
I00
sVcontains(transfer)
p2570
I00
sVcontains(starting)
p2571
I00
sVcontains(hotel)
p2572
I00
sVcontains(book)
p2573
I00
sVcontains(tell)
p2574
I00
sVcontains(city)
p2575
I00
sVcontains(I)
p2576
I00
sVcontains(an)
p2577
I00
sVcontains(is)
p2578
I00
sVcontains(doing)
p2579
I00
sVcontains(money)
p2580
I00
sVcontains(alexa)
p2581
I00
sVcontains(citi)
p2582
I00
sVcontains(online)
p2583
I00
sVcontains(give)
p2584
I00
sVcontains(proof)
p2585
I00
sVcontains(credit)
p2586
I00
sVcontains(balance)
p2587
I00
sVcontains(want)
p2588
I00
sVcontains(accomodation)
p2589
I00
sVcontains(i)
p2590
I00
sVcontains(confirm)
p2591
I00
sVcontains(bank)
p2592
I00
sVcontains(initiate)
p2593
I01
sVcontains(to)
p2594
I00
sVcontains(savings)
p2595
I00
sVcontains(get)
p2596
I00
sVcontains(booking)
p2597
I00
sVcontains(what)
p2598
I00
sVcontains(document)
p2599
I00
sVcontains(much)
p2600
I00
sVcontains(make)
p2601
I00
sVcontains(help)
p2602
I00
sVcontains('s)
p2603
I00
sVcontains(transaction)
p2604
I01
sVcontains(nice)
p2605
I00
sVcontains(amount)
p2606
I00
sVcontains(can)
p2607
I00
sS'Transaction intent'
p2608
tp2609
a((dp2610
Vcontains(corporate)
p2611
I00
sVcontains(confirmation)
p2612
I00
sVcontains(of)
p2613
I00
sVcontains(current)
p2614
I00
sVcontains(start)
p2615
I00
sVcontains(card)
p2616
I00
sVcontains(me)
p2617
I00
sVcontains(using)
p2618
I00
sVcontains(have)
p2619
I00
sVcontains(how)
p2620
I00
sVcontains(in)
p2621
I00
sVcontains(pay)
p2622
I00
sVcontains(ask)
p2623
I00
sVcontains(a)
p2624
I00
sVcontains(on)
p2625
I00
sVcontains(account)
p2626
I00
sVcontains(payment)
p2627
I00
sVcontains(the)
p2628
I00
sVcontains(use)
p2629
I00
sVcontains(Alexa)
p2630
I00
sVcontains(do)
p2631
I00
sVcontains(my)
p2632
I00
sVcontains(checking)
p2633
I00
sVcontains(for)
p2634
I00
sVcontains(transfer)
p2635
I00
sVcontains(starting)
p2636
I00
sVcontains(hotel)
p2637
I01
sVcontains(book)
p2638
I01
sVcontains(tell)
p2639
I00
sVcontains(city)
p2640
I00
sVcontains(I)
p2641
I00
sVcontains(an)
p2642
I00
sVcontains(is)
p2643
I00
sVcontains(doing)
p2644
I00
sVcontains(money)
p2645
I00
sVcontains(alexa)
p2646
I00
sVcontains(citi)
p2647
I00
sVcontains(online)
p2648
I00
sVcontains(give)
p2649
I00
sVcontains(proof)
p2650
I00
sVcontains(credit)
p2651
I00
sVcontains(balance)
p2652
I00
sVcontains(want)
p2653
I00
sVcontains(accomodation)
p2654
I00
sVcontains(i)
p2655
I00
sVcontains(confirm)
p2656
I00
sVcontains(bank)
p2657
I00
sVcontains(initiate)
p2658
I00
sVcontains(to)
p2659
I00
sVcontains(savings)
p2660
I00
sVcontains(get)
p2661
I00
sVcontains(booking)
p2662
I00
sVcontains(what)
p2663
I00
sVcontains(document)
p2664
I00
sVcontains(much)
p2665
I00
sVcontains(make)
p2666
I00
sVcontains(help)
p2667
I00
sVcontains('s)
p2668
I00
sVcontains(transaction)
p2669
I00
sVcontains(nice)
p2670
I00
sVcontains(amount)
p2671
I00
sVcontains(can)
p2672
I00
sS'Book hotel'
p2673
tp2674
a((dp2675
Vcontains(corporate)
p2676
I00
sVcontains(confirmation)
p2677
I00
sVcontains(of)
p2678
I00
sVcontains(current)
p2679
I00
sVcontains(start)
p2680
I00
sVcontains(card)
p2681
I00
sVcontains(me)
p2682
I00
sVcontains(using)
p2683
I00
sVcontains(have)
p2684
I00
sVcontains(how)
p2685
I00
sVcontains(in)
p2686
I00
sVcontains(pay)
p2687
I00
sVcontains(ask)
p2688
I00
sVcontains(a)
p2689
I01
sVcontains(on)
p2690
I00
sVcontains(account)
p2691
I00
sVcontains(payment)
p2692
I00
sVcontains(the)
p2693
I00
sVcontains(use)
p2694
I00
sVcontains(Alexa)
p2695
I00
sVcontains(do)
p2696
I00
sVcontains(my)
p2697
I00
sVcontains(checking)
p2698
I00
sVcontains(for)
p2699
I00
sVcontains(transfer)
p2700
I00
sVcontains(starting)
p2701
I00
sVcontains(hotel)
p2702
I01
sVcontains(book)
p2703
I00
sVcontains(tell)
p2704
I00
sVcontains(city)
p2705
I00
sVcontains(I)
p2706
I00
sVcontains(an)
p2707
I00
sVcontains(is)
p2708
I00
sVcontains(doing)
p2709
I00
sVcontains(money)
p2710
I00
sVcontains(alexa)
p2711
I00
sVcontains(citi)
p2712
I00
sVcontains(online)
p2713
I00
sVcontains(give)
p2714
I00
sVcontains(proof)
p2715
I00
sVcontains(credit)
p2716
I00
sVcontains(balance)
p2717
I00
sVcontains(want)
p2718
I01
sVcontains(accomodation)
p2719
I00
sVcontains(i)
p2720
I01
sVcontains(confirm)
p2721
I00
sVcontains(bank)
p2722
I00
sVcontains(initiate)
p2723
I00
sVcontains(to)
p2724
I01
sVcontains(savings)
p2725
I00
sVcontains(get)
p2726
I00
sVcontains(booking)
p2727
I01
sVcontains(what)
p2728
I00
sVcontains(document)
p2729
I00
sVcontains(much)
p2730
I00
sVcontains(make)
p2731
I01
sVcontains(help)
p2732
I00
sVcontains('s)
p2733
I00
sVcontains(transaction)
p2734
I00
sVcontains(nice)
p2735
I00
sVcontains(amount)
p2736
I00
sVcontains(can)
p2737
I00
sS'Book hotel'
p2738
tp2739
a((dp2740
Vcontains(corporate)
p2741
I00
sVcontains(confirmation)
p2742
I00
sVcontains(of)
p2743
I00
sVcontains(current)
p2744
I00
sVcontains(start)
p2745
I00
sVcontains(card)
p2746
I00
sVcontains(me)
p2747
I01
sVcontains(using)
p2748
I00
sVcontains(have)
p2749
I00
sVcontains(how)
p2750
I00
sVcontains(in)
p2751
I00
sVcontains(pay)
p2752
I00
sVcontains(ask)
p2753
I00
sVcontains(a)
p2754
I01
sVcontains(on)
p2755
I00
sVcontains(account)
p2756
I00
sVcontains(payment)
p2757
I00
sVcontains(the)
p2758
I00
sVcontains(use)
p2759
I00
sVcontains(Alexa)
p2760
I00
sVcontains(do)
p2761
I00
sVcontains(my)
p2762
I00
sVcontains(checking)
p2763
I00
sVcontains(for)
p2764
I01
sVcontains(transfer)
p2765
I00
sVcontains(starting)
p2766
I00
sVcontains(hotel)
p2767
I01
sVcontains(book)
p2768
I01
sVcontains(tell)
p2769
I00
sVcontains(city)
p2770
I00
sVcontains(I)
p2771
I00
sVcontains(an)
p2772
I00
sVcontains(is)
p2773
I00
sVcontains(doing)
p2774
I00
sVcontains(money)
p2775
I00
sVcontains(alexa)
p2776
I00
sVcontains(citi)
p2777
I00
sVcontains(online)
p2778
I00
sVcontains(give)
p2779
I00
sVcontains(proof)
p2780
I00
sVcontains(credit)
p2781
I00
sVcontains(balance)
p2782
I00
sVcontains(want)
p2783
I00
sVcontains(accomodation)
p2784
I00
sVcontains(i)
p2785
I00
sVcontains(confirm)
p2786
I00
sVcontains(bank)
p2787
I00
sVcontains(initiate)
p2788
I00
sVcontains(to)
p2789
I00
sVcontains(savings)
p2790
I00
sVcontains(get)
p2791
I00
sVcontains(booking)
p2792
I00
sVcontains(what)
p2793
I00
sVcontains(document)
p2794
I00
sVcontains(much)
p2795
I00
sVcontains(make)
p2796
I00
sVcontains(help)
p2797
I00
sVcontains('s)
p2798
I00
sVcontains(transaction)
p2799
I00
sVcontains(nice)
p2800
I00
sVcontains(amount)
p2801
I00
sVcontains(can)
p2802
I00
sS'Book hotel'
p2803
tp2804
a((dp2805
Vcontains(corporate)
p2806
I00
sVcontains(confirmation)
p2807
I00
sVcontains(of)
p2808
I00
sVcontains(current)
p2809
I00
sVcontains(start)
p2810
I00
sVcontains(card)
p2811
I00
sVcontains(me)
p2812
I00
sVcontains(using)
p2813
I00
sVcontains(have)
p2814
I00
sVcontains(how)
p2815
I00
sVcontains(in)
p2816
I00
sVcontains(pay)
p2817
I00
sVcontains(ask)
p2818
I00
sVcontains(a)
p2819
I00
sVcontains(on)
p2820
I00
sVcontains(account)
p2821
I00
sVcontains(payment)
p2822
I00
sVcontains(the)
p2823
I00
sVcontains(use)
p2824
I00
sVcontains(Alexa)
p2825
I00
sVcontains(do)
p2826
I00
sVcontains(my)
p2827
I00
sVcontains(checking)
p2828
I00
sVcontains(for)
p2829
I00
sVcontains(transfer)
p2830
I00
sVcontains(starting)
p2831
I00
sVcontains(hotel)
p2832
I00
sVcontains(book)
p2833
I01
sVcontains(tell)
p2834
I00
sVcontains(city)
p2835
I00
sVcontains(I)
p2836
I00
sVcontains(an)
p2837
I00
sVcontains(is)
p2838
I00
sVcontains(doing)
p2839
I00
sVcontains(money)
p2840
I00
sVcontains(alexa)
p2841
I00
sVcontains(citi)
p2842
I00
sVcontains(online)
p2843
I00
sVcontains(give)
p2844
I00
sVcontains(proof)
p2845
I00
sVcontains(credit)
p2846
I00
sVcontains(balance)
p2847
I00
sVcontains(want)
p2848
I00
sVcontains(accomodation)
p2849
I01
sVcontains(i)
p2850
I00
sVcontains(confirm)
p2851
I00
sVcontains(bank)
p2852
I00
sVcontains(initiate)
p2853
I00
sVcontains(to)
p2854
I00
sVcontains(savings)
p2855
I00
sVcontains(get)
p2856
I00
sVcontains(booking)
p2857
I00
sVcontains(what)
p2858
I00
sVcontains(document)
p2859
I00
sVcontains(much)
p2860
I00
sVcontains(make)
p2861
I00
sVcontains(help)
p2862
I00
sVcontains('s)
p2863
I00
sVcontains(transaction)
p2864
I00
sVcontains(nice)
p2865
I00
sVcontains(amount)
p2866
I00
sVcontains(can)
p2867
I00
sS'Book hotel'
p2868
tp2869
a((dp2870
Vcontains(corporate)
p2871
I00
sVcontains(confirmation)
p2872
I00
sVcontains(of)
p2873
I00
sVcontains(current)
p2874
I00
sVcontains(start)
p2875
I00
sVcontains(card)
p2876
I00
sVcontains(me)
p2877
I01
sVcontains(using)
p2878
I00
sVcontains(have)
p2879
I00
sVcontains(how)
p2880
I00
sVcontains(in)
p2881
I01
sVcontains(pay)
p2882
I00
sVcontains(ask)
p2883
I00
sVcontains(a)
p2884
I00
sVcontains(on)
p2885
I00
sVcontains(account)
p2886
I00
sVcontains(payment)
p2887
I00
sVcontains(the)
p2888
I00
sVcontains(use)
p2889
I00
sVcontains(Alexa)
p2890
I00
sVcontains(do)
p2891
I00
sVcontains(my)
p2892
I00
sVcontains(checking)
p2893
I00
sVcontains(for)
p2894
I00
sVcontains(transfer)
p2895
I00
sVcontains(starting)
p2896
I00
sVcontains(hotel)
p2897
I01
sVcontains(book)
p2898
I00
sVcontains(tell)
p2899
I00
sVcontains(city)
p2900
I00
sVcontains(I)
p2901
I00
sVcontains(an)
p2902
I00
sVcontains(is)
p2903
I00
sVcontains(doing)
p2904
I00
sVcontains(money)
p2905
I00
sVcontains(alexa)
p2906
I00
sVcontains(citi)
p2907
I00
sVcontains(online)
p2908
I00
sVcontains(give)
p2909
I00
sVcontains(proof)
p2910
I00
sVcontains(credit)
p2911
I00
sVcontains(balance)
p2912
I00
sVcontains(want)
p2913
I00
sVcontains(accomodation)
p2914
I00
sVcontains(i)
p2915
I00
sVcontains(confirm)
p2916
I00
sVcontains(bank)
p2917
I00
sVcontains(initiate)
p2918
I00
sVcontains(to)
p2919
I00
sVcontains(savings)
p2920
I00
sVcontains(get)
p2921
I00
sVcontains(booking)
p2922
I01
sVcontains(what)
p2923
I00
sVcontains(document)
p2924
I00
sVcontains(much)
p2925
I00
sVcontains(make)
p2926
I00
sVcontains(help)
p2927
I01
sVcontains('s)
p2928
I00
sVcontains(transaction)
p2929
I00
sVcontains(nice)
p2930
I00
sVcontains(amount)
p2931
I00
sVcontains(can)
p2932
I00
sS'Book hotel'
p2933
tp2934
a((dp2935
Vcontains(corporate)
p2936
I00
sVcontains(confirmation)
p2937
I00
sVcontains(of)
p2938
I00
sVcontains(current)
p2939
I00
sVcontains(start)
p2940
I00
sVcontains(card)
p2941
I00
sVcontains(me)
p2942
I00
sVcontains(using)
p2943
I00
sVcontains(have)
p2944
I00
sVcontains(how)
p2945
I00
sVcontains(in)
p2946
I00
sVcontains(pay)
p2947
I00
sVcontains(ask)
p2948
I00
sVcontains(a)
p2949
I01
sVcontains(on)
p2950
I00
sVcontains(account)
p2951
I00
sVcontains(payment)
p2952
I00
sVcontains(the)
p2953
I00
sVcontains(use)
p2954
I00
sVcontains(Alexa)
p2955
I00
sVcontains(do)
p2956
I00
sVcontains(my)
p2957
I00
sVcontains(checking)
p2958
I00
sVcontains(for)
p2959
I00
sVcontains(transfer)
p2960
I00
sVcontains(starting)
p2961
I00
sVcontains(hotel)
p2962
I01
sVcontains(book)
p2963
I01
sVcontains(tell)
p2964
I00
sVcontains(city)
p2965
I00
sVcontains(I)
p2966
I00
sVcontains(an)
p2967
I00
sVcontains(is)
p2968
I00
sVcontains(doing)
p2969
I00
sVcontains(money)
p2970
I00
sVcontains(alexa)
p2971
I00
sVcontains(citi)
p2972
I00
sVcontains(online)
p2973
I00
sVcontains(give)
p2974
I00
sVcontains(proof)
p2975
I00
sVcontains(credit)
p2976
I00
sVcontains(balance)
p2977
I00
sVcontains(want)
p2978
I00
sVcontains(accomodation)
p2979
I00
sVcontains(i)
p2980
I00
sVcontains(confirm)
p2981
I00
sVcontains(bank)
p2982
I00
sVcontains(initiate)
p2983
I00
sVcontains(to)
p2984
I00
sVcontains(savings)
p2985
I00
sVcontains(get)
p2986
I00
sVcontains(booking)
p2987
I00
sVcontains(what)
p2988
I00
sVcontains(document)
p2989
I00
sVcontains(much)
p2990
I00
sVcontains(make)
p2991
I00
sVcontains(help)
p2992
I00
sVcontains('s)
p2993
I00
sVcontains(transaction)
p2994
I00
sVcontains(nice)
p2995
I01
sVcontains(amount)
p2996
I00
sVcontains(can)
p2997
I00
sS'Book hotel'
p2998
tp2999
a((dp3000
Vcontains(corporate)
p3001
I00
sVcontains(confirmation)
p3002
I00
sVcontains(of)
p3003
I01
sVcontains(current)
p3004
I00
sVcontains(start)
p3005
I00
sVcontains(card)
p3006
I00
sVcontains(me)
p3007
I00
sVcontains(using)
p3008
I00
sVcontains(have)
p3009
I01
sVcontains(how)
p3010
I00
sVcontains(in)
p3011
I00
sVcontains(pay)
p3012
I00
sVcontains(ask)
p3013
I00
sVcontains(a)
p3014
I01
sVcontains(on)
p3015
I00
sVcontains(account)
p3016
I01
sVcontains(payment)
p3017
I00
sVcontains(the)
p3018
I00
sVcontains(use)
p3019
I00
sVcontains(Alexa)
p3020
I00
sVcontains(do)
p3021
I00
sVcontains(my)
p3022
I01
sVcontains(checking)
p3023
I00
sVcontains(for)
p3024
I00
sVcontains(transfer)
p3025
I00
sVcontains(starting)
p3026
I00
sVcontains(hotel)
p3027
I00
sVcontains(book)
p3028
I00
sVcontains(tell)
p3029
I00
sVcontains(city)
p3030
I00
sVcontains(I)
p3031
I00
sVcontains(an)
p3032
I00
sVcontains(is)
p3033
I00
sVcontains(doing)
p3034
I00
sVcontains(money)
p3035
I00
sVcontains(alexa)
p3036
I00
sVcontains(citi)
p3037
I00
sVcontains(online)
p3038
I00
sVcontains(give)
p3039
I00
sVcontains(proof)
p3040
I01
sVcontains(credit)
p3041
I00
sVcontains(balance)
p3042
I00
sVcontains(want)
p3043
I00
sVcontains(accomodation)
p3044
I00
sVcontains(i)
p3045
I01
sVcontains(confirm)
p3046
I00
sVcontains(bank)
p3047
I00
sVcontains(initiate)
p3048
I00
sVcontains(to)
p3049
I00
sVcontains(savings)
p3050
I00
sVcontains(get)
p3051
I00
sVcontains(booking)
p3052
I00
sVcontains(what)
p3053
I00
sVcontains(document)
p3054
I00
sVcontains(much)
p3055
I00
sVcontains(make)
p3056
I00
sVcontains(help)
p3057
I00
sVcontains('s)
p3058
I00
sVcontains(transaction)
p3059
I00
sVcontains(nice)
p3060
I00
sVcontains(amount)
p3061
I00
sVcontains(can)
p3062
I01
sS'Account Proof'
p3063
tp3064
a((dp3065
Vcontains(corporate)
p3066
I00
sVcontains(confirmation)
p3067
I00
sVcontains(of)
p3068
I00
sVcontains(current)
p3069
I00
sVcontains(start)
p3070
I00
sVcontains(card)
p3071
I00
sVcontains(me)
p3072
I00
sVcontains(using)
p3073
I00
sVcontains(have)
p3074
I01
sVcontains(how)
p3075
I00
sVcontains(in)
p3076
I00
sVcontains(pay)
p3077
I00
sVcontains(ask)
p3078
I00
sVcontains(a)
p3079
I00
sVcontains(on)
p3080
I00
sVcontains(account)
p3081
I01
sVcontains(payment)
p3082
I00
sVcontains(the)
p3083
I00
sVcontains(use)
p3084
I00
sVcontains(Alexa)
p3085
I00
sVcontains(do)
p3086
I00
sVcontains(my)
p3087
I00
sVcontains(checking)
p3088
I00
sVcontains(for)
p3089
I00
sVcontains(transfer)
p3090
I00
sVcontains(starting)
p3091
I00
sVcontains(hotel)
p3092
I00
sVcontains(book)
p3093
I00
sVcontains(tell)
p3094
I00
sVcontains(city)
p3095
I00
sVcontains(I)
p3096
I00
sVcontains(an)
p3097
I01
sVcontains(is)
p3098
I00
sVcontains(doing)
p3099
I00
sVcontains(money)
p3100
I00
sVcontains(alexa)
p3101
I00
sVcontains(citi)
p3102
I00
sVcontains(online)
p3103
I00
sVcontains(give)
p3104
I00
sVcontains(proof)
p3105
I01
sVcontains(credit)
p3106
I00
sVcontains(balance)
p3107
I00
sVcontains(want)
p3108
I00
sVcontains(accomodation)
p3109
I00
sVcontains(i)
p3110
I01
sVcontains(confirm)
p3111
I00
sVcontains(bank)
p3112
I00
sVcontains(initiate)
p3113
I00
sVcontains(to)
p3114
I00
sVcontains(savings)
p3115
I00
sVcontains(get)
p3116
I00
sVcontains(booking)
p3117
I00
sVcontains(what)
p3118
I00
sVcontains(document)
p3119
I00
sVcontains(much)
p3120
I00
sVcontains(make)
p3121
I00
sVcontains(help)
p3122
I00
sVcontains('s)
p3123
I00
sVcontains(transaction)
p3124
I00
sVcontains(nice)
p3125
I00
sVcontains(amount)
p3126
I00
sVcontains(can)
p3127
I01
sS'Account Proof'
p3128
tp3129
a((dp3130
Vcontains(corporate)
p3131
I00
sVcontains(confirmation)
p3132
I00
sVcontains(of)
p3133
I00
sVcontains(current)
p3134
I00
sVcontains(start)
p3135
I00
sVcontains(card)
p3136
I00
sVcontains(me)
p3137
I00
sVcontains(using)
p3138
I00
sVcontains(have)
p3139
I00
sVcontains(how)
p3140
I00
sVcontains(in)
p3141
I00
sVcontains(pay)
p3142
I00
sVcontains(ask)
p3143
I00
sVcontains(a)
p3144
I01
sVcontains(on)
p3145
I01
sVcontains(account)
p3146
I01
sVcontains(payment)
p3147
I00
sVcontains(the)
p3148
I00
sVcontains(use)
p3149
I00
sVcontains(Alexa)
p3150
I00
sVcontains(do)
p3151
I00
sVcontains(my)
p3152
I01
sVcontains(checking)
p3153
I00
sVcontains(for)
p3154
I00
sVcontains(transfer)
p3155
I00
sVcontains(starting)
p3156
I00
sVcontains(hotel)
p3157
I00
sVcontains(book)
p3158
I00
sVcontains(tell)
p3159
I00
sVcontains(city)
p3160
I00
sVcontains(I)
p3161
I00
sVcontains(an)
p3162
I00
sVcontains(is)
p3163
I00
sVcontains(doing)
p3164
I00
sVcontains(money)
p3165
I00
sVcontains(alexa)
p3166
I00
sVcontains(citi)
p3167
I00
sVcontains(online)
p3168
I00
sVcontains(give)
p3169
I00
sVcontains(proof)
p3170
I01
sVcontains(credit)
p3171
I00
sVcontains(balance)
p3172
I00
sVcontains(want)
p3173
I00
sVcontains(accomodation)
p3174
I00
sVcontains(i)
p3175
I01
sVcontains(confirm)
p3176
I00
sVcontains(bank)
p3177
I00
sVcontains(initiate)
p3178
I00
sVcontains(to)
p3179
I00
sVcontains(savings)
p3180
I00
sVcontains(get)
p3181
I01
sVcontains(booking)
p3182
I00
sVcontains(what)
p3183
I00
sVcontains(document)
p3184
I01
sVcontains(much)
p3185
I00
sVcontains(make)
p3186
I00
sVcontains(help)
p3187
I00
sVcontains('s)
p3188
I00
sVcontains(transaction)
p3189
I00
sVcontains(nice)
p3190
I00
sVcontains(amount)
p3191
I00
sVcontains(can)
p3192
I01
sS'Account Proof'
p3193
tp3194
a((dp3195
Vcontains(corporate)
p3196
I00
sVcontains(confirmation)
p3197
I00
sVcontains(of)
p3198
I00
sVcontains(current)
p3199
I00
sVcontains(start)
p3200
I00
sVcontains(card)
p3201
I00
sVcontains(me)
p3202
I00
sVcontains(using)
p3203
I00
sVcontains(have)
p3204
I00
sVcontains(how)
p3205
I00
sVcontains(in)
p3206
I00
sVcontains(pay)
p3207
I00
sVcontains(ask)
p3208
I00
sVcontains(a)
p3209
I00
sVcontains(on)
p3210
I00
sVcontains(account)
p3211
I01
sVcontains(payment)
p3212
I00
sVcontains(the)
p3213
I00
sVcontains(use)
p3214
I00
sVcontains(Alexa)
p3215
I00
sVcontains(do)
p3216
I00
sVcontains(my)
p3217
I00
sVcontains(checking)
p3218
I00
sVcontains(for)
p3219
I00
sVcontains(transfer)
p3220
I00
sVcontains(starting)
p3221
I00
sVcontains(hotel)
p3222
I00
sVcontains(book)
p3223
I00
sVcontains(tell)
p3224
I00
sVcontains(city)
p3225
I00
sVcontains(I)
p3226
I00
sVcontains(an)
p3227
I00
sVcontains(is)
p3228
I00
sVcontains(doing)
p3229
I00
sVcontains(money)
p3230
I00
sVcontains(alexa)
p3231
I00
sVcontains(citi)
p3232
I00
sVcontains(online)
p3233
I00
sVcontains(give)
p3234
I00
sVcontains(proof)
p3235
I01
sVcontains(credit)
p3236
I00
sVcontains(balance)
p3237
I00
sVcontains(want)
p3238
I01
sVcontains(accomodation)
p3239
I00
sVcontains(i)
p3240
I01
sVcontains(confirm)
p3241
I00
sVcontains(bank)
p3242
I00
sVcontains(initiate)
p3243
I00
sVcontains(to)
p3244
I00
sVcontains(savings)
p3245
I00
sVcontains(get)
p3246
I00
sVcontains(booking)
p3247
I00
sVcontains(what)
p3248
I00
sVcontains(document)
p3249
I00
sVcontains(much)
p3250
I00
sVcontains(make)
p3251
I00
sVcontains(help)
p3252
I00
sVcontains('s)
p3253
I00
sVcontains(transaction)
p3254
I00
sVcontains(nice)
p3255
I00
sVcontains(amount)
p3256
I00
sVcontains(can)
p3257
I00
sS'Account Proof'
p3258
tp3259
a((dp3260
Vcontains(corporate)
p3261
I00
sVcontains(confirmation)
p3262
I00
sVcontains(of)
p3263
I00
sVcontains(current)
p3264
I00
sVcontains(start)
p3265
I00
sVcontains(card)
p3266
I00
sVcontains(me)
p3267
I00
sVcontains(using)
p3268
I00
sVcontains(have)
p3269
I00
sVcontains(how)
p3270
I00
sVcontains(in)
p3271
I00
sVcontains(pay)
p3272
I00
sVcontains(ask)
p3273
I00
sVcontains(a)
p3274
I00
sVcontains(on)
p3275
I00
sVcontains(account)
p3276
I01
sVcontains(payment)
p3277
I00
sVcontains(the)
p3278
I00
sVcontains(use)
p3279
I00
sVcontains(Alexa)
p3280
I00
sVcontains(do)
p3281
I00
sVcontains(my)
p3282
I00
sVcontains(checking)
p3283
I00
sVcontains(for)
p3284
I00
sVcontains(transfer)
p3285
I00
sVcontains(starting)
p3286
I00
sVcontains(hotel)
p3287
I00
sVcontains(book)
p3288
I00
sVcontains(tell)
p3289
I00
sVcontains(city)
p3290
I00
sVcontains(I)
p3291
I00
sVcontains(an)
p3292
I00
sVcontains(is)
p3293
I00
sVcontains(doing)
p3294
I00
sVcontains(money)
p3295
I00
sVcontains(alexa)
p3296
I00
sVcontains(citi)
p3297
I00
sVcontains(online)
p3298
I00
sVcontains(give)
p3299
I00
sVcontains(proof)
p3300
I01
sVcontains(credit)
p3301
I00
sVcontains(balance)
p3302
I00
sVcontains(want)
p3303
I00
sVcontains(accomodation)
p3304
I00
sVcontains(i)
p3305
I00
sVcontains(confirm)
p3306
I00
sVcontains(bank)
p3307
I00
sVcontains(initiate)
p3308
I00
sVcontains(to)
p3309
I00
sVcontains(savings)
p3310
I00
sVcontains(get)
p3311
I00
sVcontains(booking)
p3312
I00
sVcontains(what)
p3313
I00
sVcontains(document)
p3314
I00
sVcontains(much)
p3315
I00
sVcontains(make)
p3316
I00
sVcontains(help)
p3317
I00
sVcontains('s)
p3318
I00
sVcontains(transaction)
p3319
I00
sVcontains(nice)
p3320
I00
sVcontains(amount)
p3321
I00
sVcontains(can)
p3322
I00
sS'Account Proof'
p3323
tp3324
a((dp3325
Vcontains(corporate)
p3326
I00
sVcontains(confirmation)
p3327
I00
sVcontains(of)
p3328
I01
sVcontains(current)
p3329
I00
sVcontains(start)
p3330
I00
sVcontains(card)
p3331
I00
sVcontains(me)
p3332
I00
sVcontains(using)
p3333
I00
sVcontains(have)
p3334
I00
sVcontains(how)
p3335
I00
sVcontains(in)
p3336
I00
sVcontains(pay)
p3337
I00
sVcontains(ask)
p3338
I00
sVcontains(a)
p3339
I00
sVcontains(on)
p3340
I00
sVcontains(account)
p3341
I01
sVcontains(payment)
p3342
I00
sVcontains(the)
p3343
I00
sVcontains(use)
p3344
I00
sVcontains(Alexa)
p3345
I00
sVcontains(do)
p3346
I00
sVcontains(my)
p3347
I00
sVcontains(checking)
p3348
I00
sVcontains(for)
p3349
I00
sVcontains(transfer)
p3350
I00
sVcontains(starting)
p3351
I00
sVcontains(hotel)
p3352
I00
sVcontains(book)
p3353
I00
sVcontains(tell)
p3354
I00
sVcontains(city)
p3355
I00
sVcontains(I)
p3356
I00
sVcontains(an)
p3357
I00
sVcontains(is)
p3358
I00
sVcontains(doing)
p3359
I00
sVcontains(money)
p3360
I00
sVcontains(alexa)
p3361
I00
sVcontains(citi)
p3362
I00
sVcontains(online)
p3363
I00
sVcontains(give)
p3364
I01
sVcontains(proof)
p3365
I01
sVcontains(credit)
p3366
I00
sVcontains(balance)
p3367
I00
sVcontains(want)
p3368
I00
sVcontains(accomodation)
p3369
I00
sVcontains(i)
p3370
I00
sVcontains(confirm)
p3371
I00
sVcontains(bank)
p3372
I00
sVcontains(initiate)
p3373
I00
sVcontains(to)
p3374
I00
sVcontains(savings)
p3375
I00
sVcontains(get)
p3376
I00
sVcontains(booking)
p3377
I00
sVcontains(what)
p3378
I00
sVcontains(document)
p3379
I00
sVcontains(much)
p3380
I00
sVcontains(make)
p3381
I00
sVcontains(help)
p3382
I00
sVcontains('s)
p3383
I00
sVcontains(transaction)
p3384
I00
sVcontains(nice)
p3385
I00
sVcontains(amount)
p3386
I00
sVcontains(can)
p3387
I00
sS'Account Proof'
p3388
tp3389
a((dp3390
Vcontains(corporate)
p3391
I00
sVcontains(confirmation)
p3392
I01
sVcontains(of)
p3393
I00
sVcontains(current)
p3394
I00
sVcontains(start)
p3395
I00
sVcontains(card)
p3396
I00
sVcontains(me)
p3397
I00
sVcontains(using)
p3398
I00
sVcontains(have)
p3399
I00
sVcontains(how)
p3400
I00
sVcontains(in)
p3401
I00
sVcontains(pay)
p3402
I00
sVcontains(ask)
p3403
I00
sVcontains(a)
p3404
I00
sVcontains(on)
p3405
I00
sVcontains(account)
p3406
I01
sVcontains(payment)
p3407
I00
sVcontains(the)
p3408
I00
sVcontains(use)
p3409
I00
sVcontains(Alexa)
p3410
I00
sVcontains(do)
p3411
I00
sVcontains(my)
p3412
I00
sVcontains(checking)
p3413
I00
sVcontains(for)
p3414
I00
sVcontains(transfer)
p3415
I00
sVcontains(starting)
p3416
I00
sVcontains(hotel)
p3417
I00
sVcontains(book)
p3418
I00
sVcontains(tell)
p3419
I00
sVcontains(city)
p3420
I00
sVcontains(I)
p3421
I00
sVcontains(an)
p3422
I00
sVcontains(is)
p3423
I00
sVcontains(doing)
p3424
I00
sVcontains(money)
p3425
I00
sVcontains(alexa)
p3426
I00
sVcontains(citi)
p3427
I00
sVcontains(online)
p3428
I00
sVcontains(give)
p3429
I00
sVcontains(proof)
p3430
I00
sVcontains(credit)
p3431
I00
sVcontains(balance)
p3432
I00
sVcontains(want)
p3433
I00
sVcontains(accomodation)
p3434
I00
sVcontains(i)
p3435
I00
sVcontains(confirm)
p3436
I00
sVcontains(bank)
p3437
I00
sVcontains(initiate)
p3438
I00
sVcontains(to)
p3439
I00
sVcontains(savings)
p3440
I00
sVcontains(get)
p3441
I00
sVcontains(booking)
p3442
I00
sVcontains(what)
p3443
I00
sVcontains(document)
p3444
I00
sVcontains(much)
p3445
I00
sVcontains(make)
p3446
I00
sVcontains(help)
p3447
I00
sVcontains('s)
p3448
I00
sVcontains(transaction)
p3449
I00
sVcontains(nice)
p3450
I00
sVcontains(amount)
p3451
I00
sVcontains(can)
p3452
I00
sS'Account Proof'
p3453
tp3454
a((dp3455
Vcontains(corporate)
p3456
I00
sVcontains(confirmation)
p3457
I01
sVcontains(of)
p3458
I00
sVcontains(current)
p3459
I00
sVcontains(start)
p3460
I00
sVcontains(card)
p3461
I00
sVcontains(me)
p3462
I00
sVcontains(using)
p3463
I00
sVcontains(have)
p3464
I00
sVcontains(how)
p3465
I00
sVcontains(in)
p3466
I00
sVcontains(pay)
p3467
I00
sVcontains(ask)
p3468
I00
sVcontains(a)
p3469
I01
sVcontains(on)
p3470
I01
sVcontains(account)
p3471
I01
sVcontains(payment)
p3472
I00
sVcontains(the)
p3473
I00
sVcontains(use)
p3474
I00
sVcontains(Alexa)
p3475
I00
sVcontains(do)
p3476
I00
sVcontains(my)
p3477
I01
sVcontains(checking)
p3478
I00
sVcontains(for)
p3479
I00
sVcontains(transfer)
p3480
I00
sVcontains(starting)
p3481
I00
sVcontains(hotel)
p3482
I00
sVcontains(book)
p3483
I00
sVcontains(tell)
p3484
I00
sVcontains(city)
p3485
I00
sVcontains(I)
p3486
I00
sVcontains(an)
p3487
I00
sVcontains(is)
p3488
I00
sVcontains(doing)
p3489
I00
sVcontains(money)
p3490
I00
sVcontains(alexa)
p3491
I00
sVcontains(citi)
p3492
I00
sVcontains(online)
p3493
I00
sVcontains(give)
p3494
I00
sVcontains(proof)
p3495
I00
sVcontains(credit)
p3496
I00
sVcontains(balance)
p3497
I00
sVcontains(want)
p3498
I01
sVcontains(accomodation)
p3499
I00
sVcontains(i)
p3500
I01
sVcontains(confirm)
p3501
I00
sVcontains(bank)
p3502
I00
sVcontains(initiate)
p3503
I00
sVcontains(to)
p3504
I00
sVcontains(savings)
p3505
I00
sVcontains(get)
p3506
I00
sVcontains(booking)
p3507
I00
sVcontains(what)
p3508
I00
sVcontains(document)
p3509
I01
sVcontains(much)
p3510
I00
sVcontains(make)
p3511
I00
sVcontains(help)
p3512
I00
sVcontains('s)
p3513
I00
sVcontains(transaction)
p3514
I00
sVcontains(nice)
p3515
I00
sVcontains(amount)
p3516
I00
sVcontains(can)
p3517
I00
sS'Account Proof'
p3518
tp3519
a((dp3520
Vcontains(corporate)
p3521
I00
sVcontains(confirmation)
p3522
I01
sVcontains(of)
p3523
I00
sVcontains(current)
p3524
I00
sVcontains(start)
p3525
I00
sVcontains(card)
p3526
I00
sVcontains(me)
p3527
I01
sVcontains(using)
p3528
I00
sVcontains(have)
p3529
I00
sVcontains(how)
p3530
I00
sVcontains(in)
p3531
I00
sVcontains(pay)
p3532
I00
sVcontains(ask)
p3533
I00
sVcontains(a)
p3534
I01
sVcontains(on)
p3535
I00
sVcontains(account)
p3536
I01
sVcontains(payment)
p3537
I00
sVcontains(the)
p3538
I00
sVcontains(use)
p3539
I00
sVcontains(Alexa)
p3540
I00
sVcontains(do)
p3541
I00
sVcontains(my)
p3542
I00
sVcontains(checking)
p3543
I00
sVcontains(for)
p3544
I00
sVcontains(transfer)
p3545
I00
sVcontains(starting)
p3546
I00
sVcontains(hotel)
p3547
I00
sVcontains(book)
p3548
I00
sVcontains(tell)
p3549
I00
sVcontains(city)
p3550
I00
sVcontains(I)
p3551
I00
sVcontains(an)
p3552
I00
sVcontains(is)
p3553
I00
sVcontains(doing)
p3554
I00
sVcontains(money)
p3555
I00
sVcontains(alexa)
p3556
I00
sVcontains(citi)
p3557
I00
sVcontains(online)
p3558
I00
sVcontains(give)
p3559
I01
sVcontains(proof)
p3560
I00
sVcontains(credit)
p3561
I00
sVcontains(balance)
p3562
I00
sVcontains(want)
p3563
I00
sVcontains(accomodation)
p3564
I00
sVcontains(i)
p3565
I00
sVcontains(confirm)
p3566
I00
sVcontains(bank)
p3567
I00
sVcontains(initiate)
p3568
I00
sVcontains(to)
p3569
I00
sVcontains(savings)
p3570
I00
sVcontains(get)
p3571
I00
sVcontains(booking)
p3572
I00
sVcontains(what)
p3573
I00
sVcontains(document)
p3574
I01
sVcontains(much)
p3575
I00
sVcontains(make)
p3576
I00
sVcontains(help)
p3577
I00
sVcontains('s)
p3578
I00
sVcontains(transaction)
p3579
I00
sVcontains(nice)
p3580
I00
sVcontains(amount)
p3581
I00
sVcontains(can)
p3582
I00
sS'Account Proof'
p3583
tp3584
a((dp3585
Vcontains(corporate)
p3586
I00
sVcontains(confirmation)
p3587
I00
sVcontains(of)
p3588
I00
sVcontains(current)
p3589
I00
sVcontains(start)
p3590
I00
sVcontains(card)
p3591
I00
sVcontains(me)
p3592
I00
sVcontains(using)
p3593
I00
sVcontains(have)
p3594
I00
sVcontains(how)
p3595
I00
sVcontains(in)
p3596
I00
sVcontains(pay)
p3597
I00
sVcontains(ask)
p3598
I00
sVcontains(a)
p3599
I00
sVcontains(on)
p3600
I00
sVcontains(account)
p3601
I01
sVcontains(payment)
p3602
I00
sVcontains(the)
p3603
I00
sVcontains(use)
p3604
I00
sVcontains(Alexa)
p3605
I00
sVcontains(do)
p3606
I00
sVcontains(my)
p3607
I01
sVcontains(checking)
p3608
I00
sVcontains(for)
p3609
I00
sVcontains(transfer)
p3610
I00
sVcontains(starting)
p3611
I00
sVcontains(hotel)
p3612
I00
sVcontains(book)
p3613
I00
sVcontains(tell)
p3614
I00
sVcontains(city)
p3615
I00
sVcontains(I)
p3616
I00
sVcontains(an)
p3617
I00
sVcontains(is)
p3618
I00
sVcontains(doing)
p3619
I00
sVcontains(money)
p3620
I00
sVcontains(alexa)
p3621
I00
sVcontains(citi)
p3622
I00
sVcontains(online)
p3623
I00
sVcontains(give)
p3624
I00
sVcontains(proof)
p3625
I00
sVcontains(credit)
p3626
I00
sVcontains(balance)
p3627
I00
sVcontains(want)
p3628
I00
sVcontains(accomodation)
p3629
I00
sVcontains(i)
p3630
I00
sVcontains(confirm)
p3631
I01
sVcontains(bank)
p3632
I00
sVcontains(initiate)
p3633
I00
sVcontains(to)
p3634
I00
sVcontains(savings)
p3635
I00
sVcontains(get)
p3636
I00
sVcontains(booking)
p3637
I00
sVcontains(what)
p3638
I00
sVcontains(document)
p3639
I00
sVcontains(much)
p3640
I00
sVcontains(make)
p3641
I00
sVcontains(help)
p3642
I00
sVcontains('s)
p3643
I00
sVcontains(transaction)
p3644
I00
sVcontains(nice)
p3645
I00
sVcontains(amount)
p3646
I00
sVcontains(can)
p3647
I00
sS'Account Proof'
p3648
tp3649
a((dp3650
Vcontains(corporate)
p3651
I00
sVcontains(confirmation)
p3652
I00
sVcontains(of)
p3653
I00
sVcontains(current)
p3654
I00
sVcontains(start)
p3655
I01
sVcontains(card)
p3656
I00
sVcontains(me)
p3657
I00
sVcontains(using)
p3658
I00
sVcontains(have)
p3659
I00
sVcontains(how)
p3660
I01
sVcontains(in)
p3661
I00
sVcontains(pay)
p3662
I00
sVcontains(ask)
p3663
I00
sVcontains(a)
p3664
I00
sVcontains(on)
p3665
I00
sVcontains(account)
p3666
I00
sVcontains(payment)
p3667
I00
sVcontains(the)
p3668
I00
sVcontains(use)
p3669
I00
sVcontains(Alexa)
p3670
I00
sVcontains(do)
p3671
I01
sVcontains(my)
p3672
I00
sVcontains(checking)
p3673
I00
sVcontains(for)
p3674
I00
sVcontains(transfer)
p3675
I00
sVcontains(starting)
p3676
I00
sVcontains(hotel)
p3677
I00
sVcontains(book)
p3678
I00
sVcontains(tell)
p3679
I00
sVcontains(city)
p3680
I00
sVcontains(I)
p3681
I00
sVcontains(an)
p3682
I01
sVcontains(is)
p3683
I00
sVcontains(doing)
p3684
I00
sVcontains(money)
p3685
I00
sVcontains(alexa)
p3686
I00
sVcontains(citi)
p3687
I00
sVcontains(online)
p3688
I01
sVcontains(give)
p3689
I00
sVcontains(proof)
p3690
I00
sVcontains(credit)
p3691
I00
sVcontains(balance)
p3692
I00
sVcontains(want)
p3693
I00
sVcontains(accomodation)
p3694
I00
sVcontains(i)
p3695
I01
sVcontains(confirm)
p3696
I00
sVcontains(bank)
p3697
I00
sVcontains(initiate)
p3698
I00
sVcontains(to)
p3699
I00
sVcontains(savings)
p3700
I00
sVcontains(get)
p3701
I00
sVcontains(booking)
p3702
I00
sVcontains(what)
p3703
I00
sVcontains(document)
p3704
I00
sVcontains(much)
p3705
I00
sVcontains(make)
p3706
I00
sVcontains(help)
p3707
I00
sVcontains('s)
p3708
I00
sVcontains(transaction)
p3709
I01
sVcontains(nice)
p3710
I00
sVcontains(amount)
p3711
I00
sVcontains(can)
p3712
I00
sS'Start video'
p3713
tp3714
a((dp3715
Vcontains(corporate)
p3716
I00
sVcontains(confirmation)
p3717
I00
sVcontains(of)
p3718
I00
sVcontains(current)
p3719
I00
sVcontains(start)
p3720
I00
sVcontains(card)
p3721
I00
sVcontains(me)
p3722
I00
sVcontains(using)
p3723
I00
sVcontains(have)
p3724
I00
sVcontains(how)
p3725
I00
sVcontains(in)
p3726
I01
sVcontains(pay)
p3727
I00
sVcontains(ask)
p3728
I00
sVcontains(a)
p3729
I00
sVcontains(on)
p3730
I00
sVcontains(account)
p3731
I00
sVcontains(payment)
p3732
I00
sVcontains(the)
p3733
I00
sVcontains(use)
p3734
I00
sVcontains(Alexa)
p3735
I00
sVcontains(do)
p3736
I00
sVcontains(my)
p3737
I00
sVcontains(checking)
p3738
I00
sVcontains(for)
p3739
I00
sVcontains(transfer)
p3740
I00
sVcontains(starting)
p3741
I00
sVcontains(hotel)
p3742
I00
sVcontains(book)
p3743
I00
sVcontains(tell)
p3744
I00
sVcontains(city)
p3745
I00
sVcontains(I)
p3746
I00
sVcontains(an)
p3747
I00
sVcontains(is)
p3748
I00
sVcontains(doing)
p3749
I00
sVcontains(money)
p3750
I00
sVcontains(alexa)
p3751
I00
sVcontains(citi)
p3752
I01
sVcontains(online)
p3753
I01
sVcontains(give)
p3754
I00
sVcontains(proof)
p3755
I00
sVcontains(credit)
p3756
I00
sVcontains(balance)
p3757
I00
sVcontains(want)
p3758
I01
sVcontains(accomodation)
p3759
I00
sVcontains(i)
p3760
I01
sVcontains(confirm)
p3761
I00
sVcontains(bank)
p3762
I01
sVcontains(initiate)
p3763
I00
sVcontains(to)
p3764
I00
sVcontains(savings)
p3765
I00
sVcontains(get)
p3766
I00
sVcontains(booking)
p3767
I00
sVcontains(what)
p3768
I00
sVcontains(document)
p3769
I00
sVcontains(much)
p3770
I00
sVcontains(make)
p3771
I00
sVcontains(help)
p3772
I01
sVcontains('s)
p3773
I00
sVcontains(transaction)
p3774
I00
sVcontains(nice)
p3775
I00
sVcontains(amount)
p3776
I00
sVcontains(can)
p3777
I00
sS'Start video'
p3778
tp3779
a((dp3780
Vcontains(corporate)
p3781
I00
sVcontains(confirmation)
p3782
I00
sVcontains(of)
p3783
I00
sVcontains(current)
p3784
I00
sVcontains(start)
p3785
I01
sVcontains(card)
p3786
I00
sVcontains(me)
p3787
I00
sVcontains(using)
p3788
I00
sVcontains(have)
p3789
I00
sVcontains(how)
p3790
I01
sVcontains(in)
p3791
I00
sVcontains(pay)
p3792
I00
sVcontains(ask)
p3793
I00
sVcontains(a)
p3794
I00
sVcontains(on)
p3795
I00
sVcontains(account)
p3796
I01
sVcontains(payment)
p3797
I00
sVcontains(the)
p3798
I00
sVcontains(use)
p3799
I00
sVcontains(Alexa)
p3800
I00
sVcontains(do)
p3801
I01
sVcontains(my)
p3802
I00
sVcontains(checking)
p3803
I00
sVcontains(for)
p3804
I00
sVcontains(transfer)
p3805
I00
sVcontains(starting)
p3806
I00
sVcontains(hotel)
p3807
I00
sVcontains(book)
p3808
I00
sVcontains(tell)
p3809
I00
sVcontains(city)
p3810
I00
sVcontains(I)
p3811
I00
sVcontains(an)
p3812
I01
sVcontains(is)
p3813
I00
sVcontains(doing)
p3814
I00
sVcontains(money)
p3815
I00
sVcontains(alexa)
p3816
I00
sVcontains(citi)
p3817
I00
sVcontains(online)
p3818
I00
sVcontains(give)
p3819
I00
sVcontains(proof)
p3820
I00
sVcontains(credit)
p3821
I00
sVcontains(balance)
p3822
I00
sVcontains(want)
p3823
I00
sVcontains(accomodation)
p3824
I00
sVcontains(i)
p3825
I01
sVcontains(confirm)
p3826
I00
sVcontains(bank)
p3827
I00
sVcontains(initiate)
p3828
I00
sVcontains(to)
p3829
I00
sVcontains(savings)
p3830
I00
sVcontains(get)
p3831
I00
sVcontains(booking)
p3832
I00
sVcontains(what)
p3833
I00
sVcontains(document)
p3834
I00
sVcontains(much)
p3835
I00
sVcontains(make)
p3836
I00
sVcontains(help)
p3837
I00
sVcontains('s)
p3838
I00
sVcontains(transaction)
p3839
I00
sVcontains(nice)
p3840
I00
sVcontains(amount)
p3841
I00
sVcontains(can)
p3842
I00
sS'Start video'
p3843
tp3844
a((dp3845
Vcontains(corporate)
p3846
I00
sVcontains(confirmation)
p3847
I00
sVcontains(of)
p3848
I00
sVcontains(current)
p3849
I00
sVcontains(start)
p3850
I00
sVcontains(card)
p3851
I00
sVcontains(me)
p3852
I01
sVcontains(using)
p3853
I01
sVcontains(have)
p3854
I00
sVcontains(how)
p3855
I00
sVcontains(in)
p3856
I01
sVcontains(pay)
p3857
I00
sVcontains(ask)
p3858
I00
sVcontains(a)
p3859
I00
sVcontains(on)
p3860
I00
sVcontains(account)
p3861
I00
sVcontains(payment)
p3862
I00
sVcontains(the)
p3863
I00
sVcontains(use)
p3864
I00
sVcontains(Alexa)
p3865
I00
sVcontains(do)
p3866
I00
sVcontains(my)
p3867
I00
sVcontains(checking)
p3868
I00
sVcontains(for)
p3869
I00
sVcontains(transfer)
p3870
I00
sVcontains(starting)
p3871
I00
sVcontains(hotel)
p3872
I00
sVcontains(book)
p3873
I00
sVcontains(tell)
p3874
I00
sVcontains(city)
p3875
I00
sVcontains(I)
p3876
I00
sVcontains(an)
p3877
I00
sVcontains(is)
p3878
I00
sVcontains(doing)
p3879
I00
sVcontains(money)
p3880
I00
sVcontains(alexa)
p3881
I00
sVcontains(citi)
p3882
I01
sVcontains(online)
p3883
I01
sVcontains(give)
p3884
I00
sVcontains(proof)
p3885
I00
sVcontains(credit)
p3886
I00
sVcontains(balance)
p3887
I00
sVcontains(want)
p3888
I00
sVcontains(accomodation)
p3889
I00
sVcontains(i)
p3890
I00
sVcontains(confirm)
p3891
I00
sVcontains(bank)
p3892
I00
sVcontains(initiate)
p3893
I00
sVcontains(to)
p3894
I00
sVcontains(savings)
p3895
I00
sVcontains(get)
p3896
I00
sVcontains(booking)
p3897
I00
sVcontains(what)
p3898
I00
sVcontains(document)
p3899
I00
sVcontains(much)
p3900
I00
sVcontains(make)
p3901
I00
sVcontains(help)
p3902
I01
sVcontains('s)
p3903
I00
sVcontains(transaction)
p3904
I00
sVcontains(nice)
p3905
I00
sVcontains(amount)
p3906
I00
sVcontains(can)
p3907
I00
sS'Start video'
p3908
tp3909
a((dp3910
Vcontains(corporate)
p3911
I00
sVcontains(confirmation)
p3912
I00
sVcontains(of)
p3913
I00
sVcontains(current)
p3914
I00
sVcontains(start)
p3915
I01
sVcontains(card)
p3916
I00
sVcontains(me)
p3917
I01
sVcontains(using)
p3918
I00
sVcontains(have)
p3919
I00
sVcontains(how)
p3920
I00
sVcontains(in)
p3921
I00
sVcontains(pay)
p3922
I00
sVcontains(ask)
p3923
I00
sVcontains(a)
p3924
I00
sVcontains(on)
p3925
I00
sVcontains(account)
p3926
I01
sVcontains(payment)
p3927
I00
sVcontains(the)
p3928
I00
sVcontains(use)
p3929
I00
sVcontains(Alexa)
p3930
I00
sVcontains(do)
p3931
I00
sVcontains(my)
p3932
I00
sVcontains(checking)
p3933
I00
sVcontains(for)
p3934
I00
sVcontains(transfer)
p3935
I00
sVcontains(starting)
p3936
I00
sVcontains(hotel)
p3937
I00
sVcontains(book)
p3938
I00
sVcontains(tell)
p3939
I00
sVcontains(city)
p3940
I00
sVcontains(I)
p3941
I00
sVcontains(an)
p3942
I01
sVcontains(is)
p3943
I00
sVcontains(doing)
p3944
I00
sVcontains(money)
p3945
I00
sVcontains(alexa)
p3946
I00
sVcontains(citi)
p3947
I00
sVcontains(online)
p3948
I00
sVcontains(give)
p3949
I00
sVcontains(proof)
p3950
I00
sVcontains(credit)
p3951
I00
sVcontains(balance)
p3952
I00
sVcontains(want)
p3953
I00
sVcontains(accomodation)
p3954
I00
sVcontains(i)
p3955
I00
sVcontains(confirm)
p3956
I00
sVcontains(bank)
p3957
I00
sVcontains(initiate)
p3958
I00
sVcontains(to)
p3959
I01
sVcontains(savings)
p3960
I00
sVcontains(get)
p3961
I00
sVcontains(booking)
p3962
I00
sVcontains(what)
p3963
I00
sVcontains(document)
p3964
I00
sVcontains(much)
p3965
I00
sVcontains(make)
p3966
I00
sVcontains(help)
p3967
I01
sVcontains('s)
p3968
I00
sVcontains(transaction)
p3969
I00
sVcontains(nice)
p3970
I00
sVcontains(amount)
p3971
I00
sVcontains(can)
p3972
I00
sS'Start video'
p3973
tp3974
a((dp3975
Vcontains(corporate)
p3976
I00
sVcontains(confirmation)
p3977
I00
sVcontains(of)
p3978
I00
sVcontains(current)
p3979
I00
sVcontains(start)
p3980
I00
sVcontains(card)
p3981
I00
sVcontains(me)
p3982
I01
sVcontains(using)
p3983
I00
sVcontains(have)
p3984
I00
sVcontains(how)
p3985
I00
sVcontains(in)
p3986
I01
sVcontains(pay)
p3987
I00
sVcontains(ask)
p3988
I00
sVcontains(a)
p3989
I00
sVcontains(on)
p3990
I00
sVcontains(account)
p3991
I00
sVcontains(payment)
p3992
I00
sVcontains(the)
p3993
I00
sVcontains(use)
p3994
I00
sVcontains(Alexa)
p3995
I00
sVcontains(do)
p3996
I00
sVcontains(my)
p3997
I00
sVcontains(checking)
p3998
I00
sVcontains(for)
p3999
I00
sVcontains(transfer)
p4000
I00
sVcontains(starting)
p4001
I00
sVcontains(hotel)
p4002
I00
sVcontains(book)
p4003
I00
sVcontains(tell)
p4004
I00
sVcontains(city)
p4005
I00
sVcontains(I)
p4006
I00
sVcontains(an)
p4007
I01
sVcontains(is)
p4008
I00
sVcontains(doing)
p4009
I01
sVcontains(money)
p4010
I00
sVcontains(alexa)
p4011
I00
sVcontains(citi)
p4012
I00
sVcontains(online)
p4013
I01
sVcontains(give)
p4014
I00
sVcontains(proof)
p4015
I00
sVcontains(credit)
p4016
I00
sVcontains(balance)
p4017
I00
sVcontains(want)
p4018
I00
sVcontains(accomodation)
p4019
I00
sVcontains(i)
p4020
I00
sVcontains(confirm)
p4021
I00
sVcontains(bank)
p4022
I00
sVcontains(initiate)
p4023
I00
sVcontains(to)
p4024
I00
sVcontains(savings)
p4025
I00
sVcontains(get)
p4026
I00
sVcontains(booking)
p4027
I00
sVcontains(what)
p4028
I00
sVcontains(document)
p4029
I00
sVcontains(much)
p4030
I00
sVcontains(make)
p4031
I00
sVcontains(help)
p4032
I01
sVcontains('s)
p4033
I00
sVcontains(transaction)
p4034
I01
sVcontains(nice)
p4035
I00
sVcontains(amount)
p4036
I00
sVcontains(can)
p4037
I00
sS'Start video'
p4038
tp4039
a((dp4040
Vcontains(corporate)
p4041
I00
sVcontains(confirmation)
p4042
I00
sVcontains(of)
p4043
I00
sVcontains(current)
p4044
I00
sVcontains(start)
p4045
I00
sVcontains(card)
p4046
I00
sVcontains(me)
p4047
I00
sVcontains(using)
p4048
I00
sVcontains(have)
p4049
I00
sVcontains(how)
p4050
I01
sVcontains(in)
p4051
I00
sVcontains(pay)
p4052
I00
sVcontains(ask)
p4053
I00
sVcontains(a)
p4054
I00
sVcontains(on)
p4055
I00
sVcontains(account)
p4056
I00
sVcontains(payment)
p4057
I00
sVcontains(the)
p4058
I00
sVcontains(use)
p4059
I01
sVcontains(Alexa)
p4060
I00
sVcontains(do)
p4061
I01
sVcontains(my)
p4062
I00
sVcontains(checking)
p4063
I00
sVcontains(for)
p4064
I00
sVcontains(transfer)
p4065
I00
sVcontains(starting)
p4066
I00
sVcontains(hotel)
p4067
I00
sVcontains(book)
p4068
I00
sVcontains(tell)
p4069
I00
sVcontains(city)
p4070
I00
sVcontains(I)
p4071
I00
sVcontains(an)
p4072
I00
sVcontains(is)
p4073
I00
sVcontains(doing)
p4074
I00
sVcontains(money)
p4075
I00
sVcontains(alexa)
p4076
I00
sVcontains(citi)
p4077
I01
sVcontains(online)
p4078
I01
sVcontains(give)
p4079
I00
sVcontains(proof)
p4080
I00
sVcontains(credit)
p4081
I00
sVcontains(balance)
p4082
I00
sVcontains(want)
p4083
I00
sVcontains(accomodation)
p4084
I00
sVcontains(i)
p4085
I01
sVcontains(confirm)
p4086
I00
sVcontains(bank)
p4087
I00
sVcontains(initiate)
p4088
I00
sVcontains(to)
p4089
I00
sVcontains(savings)
p4090
I00
sVcontains(get)
p4091
I00
sVcontains(booking)
p4092
I00
sVcontains(what)
p4093
I00
sVcontains(document)
p4094
I00
sVcontains(much)
p4095
I00
sVcontains(make)
p4096
I00
sVcontains(help)
p4097
I00
sVcontains('s)
p4098
I00
sVcontains(transaction)
p4099
I00
sVcontains(nice)
p4100
I00
sVcontains(amount)
p4101
I00
sVcontains(can)
p4102
I00
sS'Start video'
p4103
tp4104
a((dp4105
Vcontains(corporate)
p4106
I00
sVcontains(confirmation)
p4107
I00
sVcontains(of)
p4108
I00
sVcontains(current)
p4109
I00
sVcontains(start)
p4110
I00
sVcontains(card)
p4111
I00
sVcontains(me)
p4112
I00
sVcontains(using)
p4113
I00
sVcontains(have)
p4114
I00
sVcontains(how)
p4115
I01
sVcontains(in)
p4116
I00
sVcontains(pay)
p4117
I00
sVcontains(ask)
p4118
I00
sVcontains(a)
p4119
I00
sVcontains(on)
p4120
I00
sVcontains(account)
p4121
I00
sVcontains(payment)
p4122
I00
sVcontains(the)
p4123
I00
sVcontains(use)
p4124
I01
sVcontains(Alexa)
p4125
I00
sVcontains(do)
p4126
I00
sVcontains(my)
p4127
I00
sVcontains(checking)
p4128
I00
sVcontains(for)
p4129
I00
sVcontains(transfer)
p4130
I00
sVcontains(starting)
p4131
I00
sVcontains(hotel)
p4132
I00
sVcontains(book)
p4133
I00
sVcontains(tell)
p4134
I00
sVcontains(city)
p4135
I00
sVcontains(I)
p4136
I00
sVcontains(an)
p4137
I00
sVcontains(is)
p4138
I00
sVcontains(doing)
p4139
I00
sVcontains(money)
p4140
I00
sVcontains(alexa)
p4141
I00
sVcontains(citi)
p4142
I01
sVcontains(online)
p4143
I01
sVcontains(give)
p4144
I00
sVcontains(proof)
p4145
I00
sVcontains(credit)
p4146
I00
sVcontains(balance)
p4147
I00
sVcontains(want)
p4148
I00
sVcontains(accomodation)
p4149
I00
sVcontains(i)
p4150
I00
sVcontains(confirm)
p4151
I00
sVcontains(bank)
p4152
I00
sVcontains(initiate)
p4153
I00
sVcontains(to)
p4154
I01
sVcontains(savings)
p4155
I00
sVcontains(get)
p4156
I00
sVcontains(booking)
p4157
I00
sVcontains(what)
p4158
I00
sVcontains(document)
p4159
I00
sVcontains(much)
p4160
I00
sVcontains(make)
p4161
I00
sVcontains(help)
p4162
I00
sVcontains('s)
p4163
I00
sVcontains(transaction)
p4164
I00
sVcontains(nice)
p4165
I00
sVcontains(amount)
p4166
I00
sVcontains(can)
p4167
I00
sS'Start video'
p4168
tp4169
a((dp4170
Vcontains(corporate)
p4171
I00
sVcontains(confirmation)
p4172
I00
sVcontains(of)
p4173
I00
sVcontains(current)
p4174
I00
sVcontains(start)
p4175
I00
sVcontains(card)
p4176
I00
sVcontains(me)
p4177
I01
sVcontains(using)
p4178
I00
sVcontains(have)
p4179
I00
sVcontains(how)
p4180
I00
sVcontains(in)
p4181
I01
sVcontains(pay)
p4182
I00
sVcontains(ask)
p4183
I00
sVcontains(a)
p4184
I00
sVcontains(on)
p4185
I00
sVcontains(account)
p4186
I01
sVcontains(payment)
p4187
I00
sVcontains(the)
p4188
I00
sVcontains(use)
p4189
I00
sVcontains(Alexa)
p4190
I00
sVcontains(do)
p4191
I00
sVcontains(my)
p4192
I00
sVcontains(checking)
p4193
I00
sVcontains(for)
p4194
I00
sVcontains(transfer)
p4195
I00
sVcontains(starting)
p4196
I01
sVcontains(hotel)
p4197
I00
sVcontains(book)
p4198
I00
sVcontains(tell)
p4199
I00
sVcontains(city)
p4200
I00
sVcontains(I)
p4201
I00
sVcontains(an)
p4202
I01
sVcontains(is)
p4203
I00
sVcontains(doing)
p4204
I00
sVcontains(money)
p4205
I00
sVcontains(alexa)
p4206
I00
sVcontains(citi)
p4207
I00
sVcontains(online)
p4208
I00
sVcontains(give)
p4209
I00
sVcontains(proof)
p4210
I00
sVcontains(credit)
p4211
I00
sVcontains(balance)
p4212
I00
sVcontains(want)
p4213
I00
sVcontains(accomodation)
p4214
I00
sVcontains(i)
p4215
I00
sVcontains(confirm)
p4216
I00
sVcontains(bank)
p4217
I00
sVcontains(initiate)
p4218
I00
sVcontains(to)
p4219
I00
sVcontains(savings)
p4220
I00
sVcontains(get)
p4221
I00
sVcontains(booking)
p4222
I00
sVcontains(what)
p4223
I00
sVcontains(document)
p4224
I00
sVcontains(much)
p4225
I00
sVcontains(make)
p4226
I00
sVcontains(help)
p4227
I01
sVcontains('s)
p4228
I00
sVcontains(transaction)
p4229
I00
sVcontains(nice)
p4230
I00
sVcontains(amount)
p4231
I00
sVcontains(can)
p4232
I00
sS'Start video'
p4233
tp4234
asS'train_set'
p4235
(lp4236
(S'Alexa ask city bank how much money I have in my savings.\n'
p4237
g73
tp4238
a(S"Alexa ask city bank what's my checking account balance.\n"
p4239
g138
tp4240
a(S'my savings account balance\n'
p4241
g203
tp4242
a(S'tell me my savings account balance\n'
p4243
g268
tp4244
a(S'tell me my savings balance\n'
p4245
g333
tp4246
a(S'my current account balance\n'
p4247
g398
tp4248
a(S'tell me my current account balance\n'
p4249
g463
tp4250
a(S'tell me my current balance\n'
p4251
g528
tp4252
a(S'my checking account balance\n'
p4253
g593
tp4254
a(S'tell me my checking account balance\n'
p4255
g658
tp4256
a(S'tell me my checking balance\n'
p4257
g723
tp4258
a(S'Alexa ask city bank what is my checking account balance.\n'
p4259
g788
tp4260
a(S"alexa ask city bank what's the balance on my credit card\n"
p4261
g853
tp4262
a(S"what's the balance on my credit card\n"
p4263
g918
tp4264
a(S'what is the balance on my credit card\n'
p4265
g983
tp4266
a(S'my credit card balance\n'
p4267
g1048
tp4268
a(S'what is the balance on my credit card\n'
p4269
g1113
tp4270
a(S'savings balance\n'
p4271
g1178
tp4272
a(S'credit balance\n'
p4273
g1243
tp4274
a(S'credit card balance\n'
p4275
g1308
tp4276
a(S'savings balance\n'
p4277
g1373
tp4278
a(S'transfer amount to\n'
p4279
g1438
tp4280
a(S'I want to transfer amount to\n'
p4281
g1503
tp4282
a(S'i want to make a payment\n'
p4283
g1568
tp4284
a(S'make payment\n'
p4285
g1633
tp4286
a(S'initiate a payment\n'
p4287
g1698
tp4288
a(S'do a payment transfer\n'
p4289
g1763
tp4290
a(S'pay money\n'
p4291
g1828
tp4292
a(S'I want to pay money\n'
p4293
g1893
tp4294
a(S'money payment\n'
p4295
g1958
tp4296
a(S'i want to initiate a payment\n'
p4297
g2023
tp4298
a(S'transfer money\n'
p4299
g2088
tp4300
a(S'I want to do corporate transfer\n'
p4301
g2153
tp4302
a(S'I want to do transaction\n'
p4303
g2218
tp4304
a(S'make a transaction\n'
p4305
g2283
tp4306
a(S'do a transaction for me\n'
p4307
g2348
tp4308
a(S'I want to do corporate transaction\n'
p4309
g2413
tp4310
a(S'corporate transaction\n'
p4311
g2478
tp4312
a(S'make a corporate transaction\n'
p4313
g2543
tp4314
a(S'initiate corporate transaction\n'
p4315
g2608
tp4316
a(S'book hotel\n'
p4317
g2673
tp4318
a(S'i want to make a hotel booking\n'
p4319
g2738
tp4320
a(S'book a hotel for me\n'
p4321
g2803
tp4322
a(S'book accomodation\n'
p4323
g2868
tp4324
a(S'help me in booking hotel\n'
p4325
g2933
tp4326
a(S'book a nice hotel\n'
p4327
g2998
tp4328
a(S'can i have a proof of my account\n'
p4329
g3063
tp4330
a(S'can i have an account proof\n'
p4331
g3128
tp4332
a(S'can i get a proof document on my account\n'
p4333
g3193
tp4334
a(S'i want account proof\n'
p4335
g3258
tp4336
a(S'account proof\n'
p4337
g3323
tp4338
a(S'give proof of account\n'
p4339
g3388
tp4340
a(S'account confirmation\n'
p4341
g3453
tp4342
a(S'i want a confirmation document on my account\n'
p4343
g3518
tp4344
a(S'give me a account confirmation document\n'
p4345
g3583
tp4346
a(S'confirm my account\n'
p4347
g3648
tp4348
a(S'how do i start an online transaction\n'
p4349
g3713
tp4350
a(S'i want help in citi bank online\n'
p4351
g3778
tp4352
a(S'how do i start an account\n'
p4353
g3843
tp4354
a(S'help me in using citi online\n'
p4355
g3908
tp4356
a(S'help me to start an account\n'
p4357
g3973
tp4358
a(S'help me in doing an online transaction\n'
p4359
g4038
tp4360
a(S'how do i use citi online\n'
p4361
g4103
tp4362
a(S'how to use citi online\n'
p4363
g4168
tp4364
a(S'help me in starting an account\n'
p4365
g4233
tp4366
asS'feature_extractor'
p4367
ctextblob.classifiers
basic_extractor
p4368
sb.